(dp0
I0
(dp1
S'keywords'
p2
(lp3
sS'text'
p4
S'RT @JmeBBK: I call him Oluwababaskepta RT @Iborinho: @JmeBBK Do you call your brother by his name or do you call him Skepta'
p5
sS'cluster'
p6
I0
ssI1
(dp7
g2
(lp8
sg4
S'@BI_Sports if anyone on the cavs deserves a max besides bron its tristan. No idea what everyone else is thinking.'
p9
sg6
I0
ssI2
(dp10
g2
(lp11
sg4
S'RT @flauntingniall: HE GOES "YOU KNOW HES GUNNA BE A DAD" AND VERY FAINTLY YOU HEAR "NO IM NOT" THIS IS APPARENTLY WHAT HAPPENED http://t.c\\u2026'
p12
sg6
I0
ssI3
(dp13
g2
(lp14
sg4
S'RT @abscbndotcom: On The Wings Of Love August 11, 2015 Teaser: http://t.co/TNstJqyZv2 via @YouTube'
p15
sg6
I0
ssI4
(dp16
g2
(lp17
sg4
S'why have abs when u can have kebabs'
p18
sg6
I0
ssI5
(dp19
g2
(lp20
sg4
S'RT @CurtisBebro: "i wouldn\\\'t date a trans woman" boy these women wouldn\\\'t date you in your dreams http://t.co/PrGZhu2ZDc'
p21
sg6
I0
ssI6
(dp22
g2
(lp23
sg4
S'A bottle fell off my bedside table and I go "OH FUCK YOU, YOU STUPID FUCKING CUNT!" like im so angry bc im tired gn bye outtie'
p24
sg6
I0
ssI7
(dp25
g2
(lp26
sg4
S"RT @necrosoftgames: Hi friends! We're working on a new thing with @jnkboy @d92008 and einsbern. RT if you like :3 http://t.co/rm2mNFy6oe ht\\u2026"
p27
sg6
I0
ssI8
(dp28
g2
(lp29
sg4
S'RT @100_vines: probably a conversation Raven &amp; Clarke had about Finn https://t.co/eLz9QPzWwh'
p30
sg6
I0
ssI9
(dp31
g2
(lp32
sg4
S'"It\\\'s like you lost your woman to Martin-Luther-Jesus-Ghandi." "He just signed a new contract. He got 87.6 reasons to not give a fuck..."'
p33
sg6
I0
ssI10
(dp34
g2
(lp35
sg4
S'@SkyDX hahahha thats okay ^-^ i read it just now :3'
p36
sg6
I0
ssI11
(dp37
g2
(lp38
sg4
S"I've really come to find out I have no one to talk to \\U0001f602"
p39
sg6
I0
ssI12
(dp40
g2
(lp41
sg4
S"periods suck. if we could just get a call once a month saying we're not pregnant you know that would be gr8"
p42
sg6
I0
ssI13
(dp43
g2
(lp44
sg4
S"RT @etnaD_olegnaD: Just saw a gang fight. When I mean gang fight, I mean these seagulls we're fucking up one seagull over food hahaha"
p45
sg6
I0
ssI14
(dp46
g2
(lp47
sg4
S'it for the young females, aye, their coming out.  Ladies on parade for those with a purse full of coins. ( @TheLadyViola ) &gt;'
p48
sg6
I0
ssI15
(dp49
g2
(lp50
sg4
S'RT @Tommy_Delicious: @tymregnier is a savage'
p51
sg6
I0
ssI16
(dp52
g2
(lp53
sg4
S"i'm fat lol"
p54
sg6
I0
ssI17
(dp55
g2
(lp56
sg4
S"@JoshhCOD Inevitably you're probably right, but that's a reflection on the nature of the game atm. Be the change you want to see &amp; all that."
p57
sg6
I0
ssI18
(dp58
g2
(lp59
sg4
S'I just wanna look good for ya'
p60
sg6
I0
ssI19
(dp61
g2
(lp62
sg4
S'@camerondallas I really really really love you, pls follow me \\U0001f60d #VoteForCameron #Camwebstarandviner \\U0001f49c x103'
p63
sg6
I0
ssI20
(dp64
g2
(lp65
sg4
S"I can't believe it's not butter"
p66
sg6
I0
ssI21
(dp67
g2
(lp68
sg4
S"RT @WeLoveRobDyrdek: I'm dying \\U0001f602 https://t.co/mEoOWgdGPH"
p69
sg6
I0
ssI22
(dp70
g2
(lp71
sg4
S'@SQuirrel147 I told you it would make you a better Chie player.'
p72
sg6
I0
ssI23
(dp73
g2
(lp74
sg4
S"Let me tell you something, you're going to be dead a lot longer than you were ever alive."
p75
sg6
I0
ssI24
(dp76
g2
(lp77
sg4
S'RT @NotableFollow: I will/+ Give you 2000+ REAL Twitter Followers Permanent for $5 http://t.co/tnFUoi4Fro via @MyCheapJobss http://t.co/wM3\\u2026'
p78
sg6
I0
ssI25
(dp79
g2
(lp80
sg4
S'@mckryan never seen that haha I feel like I should have tho lol'
p81
sg6
I0
ssI26
(dp82
g2
(lp83
sg4
S'I asked you out for a reason... Because I missed us'
p84
sg6
I0
ssI27
(dp85
g2
(lp86
sg4
S'All the world over I will back the masses against the classes.'
p87
sg6
I0
ssI28
(dp88
g2
(lp89
sg4
S"RT @TupacShakurTS: Don't trust a bitch."
p90
sg6
I0
ssI29
(dp91
g2
(lp92
sg4
S'RT @1DsUniverse: "Louis made a lot of kids happy"\n"Liam was there with him"\n"Harry and Niall donated their stuffs to help kids" http://t.co\\u2026'
p93
sg6
I0
ssI30
(dp94
g2
(lp95
sg4
S"RT @madiseIena: @TaylorMarieHill I'm in love with you"
p96
sg6
I0
ssI31
(dp97
g2
(lp98
sg4
S'@MindRecker69 \nin his own thoughts as he started to back out]\n"I\\\'m.. gonna.. swim for a bit..\\\'\\\''
p99
sg6
I0
ssI32
(dp100
g2
(lp101
sg4
S'RT @egyptizayn: I NEED TO BE STOPPED http://t.co/HY4F2HVELR'
p102
sg6
I0
ssI33
(dp103
g2
(lp104
sg4
S'Happy birthday @devynwillows\\U0001f389\\u2764\\ufe0f hope you have a great day! http://t.co/aqDjPccq3s'
p105
sg6
I0
ssI34
(dp106
g2
(lp107
sg4
S"RT @DataPepple: I've always liked Emma Watson. I just liked her a little bit more after reading this. http://t.co/tquVA7Nbcr"
p108
sg6
I0
ssI35
(dp109
g2
(lp110
sg4
S"RT @CauseWereGuys: When you haven't seen your best friend in close to a year http://t.co/cqkiIrotPC"
p111
sg6
I0
ssI36
(dp112
g2
(lp113
sg4
S'RT @MilitaryTweet: The only time a selfie stick is cool \\u2708\\ufe0f\\U0001f1fa\\U0001f1f8 http://t.co/oVVNIKo6PL'
p114
sg6
I0
ssI37
(dp115
g2
(lp116
sg4
S'@baemorley @aestheticblake OMG I LITERALLY ONLY GOT IT NOW IM SO FREAKING STUPID I HATE MYSELF'
p117
sg6
I0
ssI38
(dp118
g2
(lp119
sg4
S'RT @WORIDSTARHIPH0P: Kris: "do you guys need anything? some snacks? a condom? let me know" http://t.co/MURaQSSWvq'
p120
sg6
I0
ssI39
(dp121
g2
(lp122
sg4
S"oh Monday, I'll miss you...NOT!"
p123
sg6
I0
ssI40
(dp124
g2
(lp125
sg4
S'RT @fourarrowsniall: LOUIS DONATED \\xa310k FOR LIAM TO HAVE HIS FACE PAINTED AND LEAVE THE BALL LIKE THAT I GTG http://t.co/dI9tMCYw0n'
p126
sg6
I0
ssI41
(dp127
g2
(lp128
sg4
S'RT @girlposts: it\\u2019s hard to stay in touch with internet friends I just want u to know that even though we havent talked in a long time I st\\u2026'
p129
sg6
I0
ssI42
(dp130
g2
(lp131
sg4
S"RT @adidasliIo: if you're curious as to how lilo girls are doing at the moment, i can tell you that i personally am in the deepest depths o\\u2026"
p132
sg6
I0
ssI43
(dp133
g2
(lp134
sg4
S"Basically the end game here is I told her to #BuyDragMeDownOniTunes. But I regret it bc she doesn't deserve to hear that art."
p135
sg6
I0
ssI44
(dp136
g2
(lp137
sg4
S"RT @technickl: AND YES, I'M SHOUTING. BECAUSE YOU BETTER BE THERE.\n\nI MEAN IT.\n\nI'M WATCHING YOU."
p138
sg6
I0
ssI45
(dp139
g2
(lp140
sg4
S'i wanna try a blaster tbh'
p141
sg6
I0
ssI46
(dp142
g2
(lp143
sg4
S"RT @Dvpexx_: \\U0001f480 when yo mom ain't go grocery shopping in a month http://t.co/qimxKkSL1V"
p144
sg6
I0
ssI47
(dp145
g2
(lp146
sg4
S'RT @NiggaNarration: Back with a vengeance nigga http://t.co/iK8z4s2YAj'
p147
sg6
I0
ssI48
(dp148
g2
(lp149
sg4
S'xception'
p150
sg6
I0
ssI49
(dp151
g2
(lp152
sg4
S'@jazmineheredia_ Happy day! Follow us and you could win a makeup eraser :)'
p153
sg6
I0
ssI50
(dp154
g2
(lp155
sg4
S'xception'
p156
sg6
I0
ssI51
(dp157
g2
(lp158
sg4
S'RT @ADuke_0711: @ClaudiaVincen10 @s_fowler16 I miss yall!'
p159
sg6
I0
ssI52
(dp160
g2
(lp161
sg4
S'RT @Dbargen: I cannot. Mcc http://t.co/UQEB7vFbIM'
p162
sg6
I0
ssI53
(dp163
g2
(lp164
sg4
S'xception'
p165
sg6
I0
ssI54
(dp166
g2
(lp167
sg4
S'RT @alllthelovex: I SEE NO DIFFERENCE http://t.co/rQjLtHSfYL'
p168
sg6
I0
ssI55
(dp169
g2
(lp170
sg4
S'RT @LarryUpdatesAcc: "@tmhcurlshire:"no i\\\'m not" louis says right after the man said he\\\'s going to be a dad http://t.co/Er4Xthfe5d" "you kn\\u2026'
p171
sg6
I0
ssI56
(dp172
g2
(lp173
sg4
S"I'm at Unip https://t.co/8aDHials8G"
p174
sg6
I0
ssI57
(dp175
g2
(lp176
sg4
S"RT @WeddingCatcher: I can't wait for this \\U0001f60d http://t.co/ybkNAITeIT"
p177
sg6
I0
ssI58
(dp178
g2
(lp179
sg4
S'"Is that a world tour or your girls tour"'
p180
sg6
I0
ssI59
(dp181
g2
(lp182
sg4
S"@MissAntoinette_ I've never even gotten a solid 10 human viewers in a channel at once within the past year I've been doing this"
p183
sg6
I0
ssI60
(dp184
g2
(lp185
sg4
S"I wouldn't have thought I'd see Fred Jackson that high on this list."
p186
sg6
I0
ssI61
(dp187
g2
(lp188
sg4
S'RT @Chief_Keesh: All she gets from me is a hard time'
p189
sg6
I0
ssI62
(dp190
g2
(lp191
sg4
S'xception'
p192
sg6
I0
ssI63
(dp193
g2
(lp194
sg4
S"RT @pickupIines: if you were a fruit you'd be a fineapple"
p195
sg6
I0
ssI64
(dp196
g2
(lp197
sg4
S"Dude, Karma, I get it, I'm a horrible human being and you are hell bent on making me pay my dues...but I think we're good now #karma #fml"
p198
sg6
I0
ssI65
(dp199
g2
(lp200
sg4
S'RT @ACommonFemaIe: How to turn a bad situation into a good one http://t.co/MrWWVziKi2'
p201
sg6
I0
ssI66
(dp202
g2
(lp203
sg4
S'@tourbusniaIl I do he is the sweetest person in the whole entire world'
p204
sg6
I0
ssI67
(dp205
g2
(lp206
sg4
S'I just checked into my local @Ford dealer with #mPLACES'
p207
sg6
I0
ssI68
(dp208
g2
(lp209
sg4
S"I feel like I should prepare my baby's @twitter TL for the shit she may tweet after Saturday night...\n\n... Cause bruh."
p210
sg6
I0
ssI69
(dp211
g2
(lp212
sg4
S'@PSUBoomboxGuy At least you admitted to trolling not a lot of people like you.'
p213
sg6
I0
ssI70
(dp214
g2
(lp215
sg4
S'I hold in toooooo much fucking anger .'
p216
sg6
I0
ssI71
(dp217
g2
(lp218
sg4
S"RT @ReaIKentMurphy: Ohio State's pitcher Zach Farmer passed away after a battle with leukemia. RIP Zach, throw some heat in heaven \\u26be\\ufe0f http:\\u2026"
p219
sg6
I0
ssI72
(dp220
g2
(lp221
sg4
S"Favourite this or retweet it and I'll do u a fan sign"
p222
sg6
I0
ssI73
(dp223
g2
(lp224
sg4
S'RT @avonsbelIissima: I LOVE MY MOTHER SO MUCH http://t.co/i3aKRv2rCh'
p225
sg6
I0
ssI74
(dp226
g2
(lp227
sg4
S'#AaronCarpenter do you love your portuguese fans? When do you come to Portugal? Portugal loves you. Love u @AaronCarpenter x31'
p228
sg6
I0
ssI75
(dp229
g2
(lp230
sg4
S"@tayisaaa yeah true! For me that's short because I'm way taller bit for some that's average \\U0001f602"
p231
sg6
I0
ssI76
(dp232
g2
(lp233
sg4
S"I guess I gotta make it up to him now.. LOL.. hmm.. I'm thinking home made dinner and a movie.. Yea that sounds about right\\u2764"
p234
sg6
I0
ssI77
(dp235
g2
(lp236
sg4
S'A FEW BUMPS?!?\n#UnderstatementOfTheDay\n@Flusche @velopaso'
p237
sg6
I0
ssI78
(dp238
g2
(lp239
sg4
S'@maxt1234567 SERIOUSLY? Bruh. We came here for a simple giveaway. You asked us to follow so we did. Now we await a winner.'
p240
sg6
I0
ssI79
(dp241
g2
(lp242
sg4
S'@PretendRedhead I realised that just now. I blame being tired and having seen it come up in my timeline!'
p243
sg6
I0
ssI80
(dp244
g2
(lp245
sg4
S'#freeoralsex #hotgirls #sexchat #blowjobs #cumshots #exgfs - get a real girl near you &gt;&gt; http://t.co/PulTUU7F6L http://t.co/ojX1ED51jq'
p246
sg6
I0
ssI81
(dp247
g2
(lp248
sg4
S'@kawaiigaythug A PS Vita game'
p249
sg6
I0
ssI82
(dp250
g2
(lp251
sg4
S"RT @futsurehearts: i wish 5sos stans would respect 5sos as much as 5sos respect us, yes they're pretty boys but they have raw talent that o\\u2026"
p252
sg6
I0
ssI83
(dp253
g2
(lp254
sg4
S'RT @WORIDSTARHIPH0P: All I need in life \\U0001f60d https://t.co/QOgiI5cmAE'
p255
sg6
I0
ssI84
(dp256
g2
(lp257
sg4
S'RT @TheFunnyVine: Me af when I have kids \\U0001f601 http://t.co/jzspNdZGtJ'
p258
sg6
I0
ssI85
(dp259
g2
(lp260
sg4
S'RT @93slaurent: I have been reborn. I have 20/20 vision. My acne is gone. My split ends are gone. There is peace in the world. http://t.co/\\u2026'
p261
sg6
I0
ssI86
(dp262
g2
(lp263
sg4
S'@letus_dance yeah I know you will'
p264
sg6
I0
ssI87
(dp265
g2
(lp266
sg4
S"@AdaptsTheGod dam after I guess let's take over cs go"
p267
sg6
I0
ssI88
(dp268
g2
(lp269
sg4
S"RT @Steele_Stewart: Can someone please remind Tristan Thompson that he's a backup PF w/ no offensive game whatsoever. Role players dont get\\u2026"
p270
sg6
I0
ssI89
(dp271
g2
(lp272
sg4
S'RT @brownblaze: FREE THE SQUAD. \n\nCall STL U.S. Attorney &amp; demand activists be released immediately without charge. 314-539-2200  https://t\\u2026'
p273
sg6
I0
ssI90
(dp274
g2
(lp275
sg4
S"RT @queenchinaa19: I'm praying my Glo is like this #DK4L \\U0001f62d\\U0001f629\\U0001f602 http://t.co/E4wz9XGPJ9"
p276
sg6
I0
ssI91
(dp277
g2
(lp278
sg4
S"RT @JoeBlak51: I'm the man on my own two \\U0001f463, no cosign needed \\U0001f44c\\U0001f4af"
p279
sg6
I0
ssI92
(dp280
g2
(lp281
sg4
S'RT @JDadolescente: Babe with big tits on her knees deep throats a toy http://t.co/RUBupdimUO'
p282
sg6
I0
ssI93
(dp283
g2
(lp284
sg4
S'A nasty Android exploit has wireless carriers making bold moves to protect smartphones http://t.co/Ovhu0KdMrK  #trending'
p285
sg6
I0
ssI94
(dp286
g2
(lp287
sg4
S"RT @teenageharryy: Can't bring myself to give up on anyone even if I really should"
p288
sg6
I0
ssI95
(dp289
g2
(lp290
sg4
S"RT @probablylame: i'm the type of friend who will come pick you up at 3 am and talk about everything"
p291
sg6
I0
ssI96
(dp292
g2
(lp293
sg4
S"Fuck the haters,I'm too hard for this shit\\u270c\\U0001f3fc\\ufe0f\\u270c\\U0001f3fc\\u270c\\U0001f3fc\\u270c\\U0001f3fc\\u270c\\U0001f3fc"
p294
sg6
I0
ssI97
(dp295
g2
(lp296
sg4
S"Extreme nights day 2 tonight at sycamore creek church 8:30-10:30 wear dark clothes and bring a towel it's water night\\U0001f4a6\\U0001f30a"
p297
sg6
I0
ssI98
(dp298
g2
(lp299
sg4
S'I want new friends to be honest.'
p300
sg6
I0
ssI99
(dp301
g2
(lp302
sg4
S'RT @okayxnarry: Going somewhere with Louis vs. leaving somewhere with Louis\\U0001f602 i love lilo \n#BelieveInMagicBall http://t.co/BKNuwZ26Ne'
p303
sg6
I0
ss.