(dp0
I0
(dp1
S'keywords'
p2
(lp3
S'watch'
p4
aS'movie??'
p5
aS'mention'
p6
aS'@imzsworld'
p7
asS'text'
p8
S'@imzsworld did they mention the name of the movie?? I wanna watch it!'
p9
sS'cluster'
p10
I0
ssI1
(dp11
g2
(lp12
S'http://t.co/mNPFBNeVpO'
p13
aS'http://t.co/GxBpxE8hd7'
p14
aS'e\\u2026'
p15
aS'Wood'
p16
asg8
S'Hammock Hanging Chair Air Deluxe Sky Swing Outdoor Chair Solid Wood 250lb - Full read by e\\u2026 http://t.co/mNPFBNeVpO http://t.co/GxBpxE8hd7'
p17
sg10
I0
ssI2
(dp18
g2
(lp19
S'text'
p20
aS'relationships'
p21
aS'cute'
p22
aS'\\U0001f60a\\U0001f60a\\U0001f60a\\U0001f60a\\U0001f60a\\U0001f60a\\U0001f60a\\U0001f60a\\U0001f60a\\U0001f60a\\U0001f60a\\U0001f60a\\U0001f60a\\U0001f60a\\U0001f60a\\U0001f60a\\U0001f60a\\U0001f60a\\U0001f60a\\U0001f60a\\U0001f60a\\U0001f60a\\U0001f60a'
p23
asg8
S"RT @teenagersdiary: When your friends are all in a cute relationships and you're just trying to get a text back \\U0001f60a\\U0001f60a\\U0001f60a\\U0001f60a\\U0001f60a\\U0001f60a\\U0001f60a\\U0001f60a\\U0001f60a\\U0001f60a\\U0001f60a\\U0001f60a\\U0001f60a\\U0001f60a\\U0001f60a\\U0001f60a\\U0001f60a\\U0001f60a\\U0001f60a\\U0001f60a\\U0001f60a\\U0001f60a\\U0001f60a"
p24
sg10
I0
ssI3
(dp25
g2
(lp26
S'sister'
p27
aS'omg'
p28
aS'extra'
p29
aS'difficult'
p30
asg8
S"Attempting to get my sister a phone and she's being extra difficult omg"
p31
sg10
I0
ssI4
(dp32
g2
(lp33
S'shake'
p34
aS'fil'
p35
aS'chick'
p36
aS'\\U0001f62d'
p37
asg8
S'I want chick fil a and a Oreo shake \\U0001f62d'
p38
sg10
I0
ssI5
(dp39
g2
(lp40
S'http://t.co/J6s9lvnKRl'
p41
aS'case'
p42
aS'buss'
p43
aS'\\U0001f602\\U0001f602\\U0001f602'
p44
asg8
S'RT @Lowkey_oo: LOL!!! I buss case \\U0001f602\\U0001f602\\U0001f602 http://t.co/J6s9lvnKRl'
p45
sg10
I0
ssI6
(dp46
g2
(lp47
S'yet'
p48
aS'wonder'
p49
aS'soundcloud'
p50
aS'mixtapes'
p51
asg8
S'I wonder if anybody found all my mixtapes on soundcloud yet'
p52
sg10
I0
ssI7
(dp53
g2
(lp54
S'wonderful'
p55
aS'me?'
p56
aS'lots\\U0001f49c'
p57
aS"how's"
p58
asg8
S"@Harry_Styles do you wanna know how's wonderful &amp; has the biggest heart ever? Read the first name again.\nPls follow me? Love u lots\\U0001f49c\n-45,161"
p59
sg10
I0
ssI8
(dp60
g2
(lp61
S'http://t.co/8sQRXFabmC'
p62
aS'Prince'
p63
aS'@WhyLarryIsReal:'
p64
aS'a'
p65
asg8
S'RT @WhyLarryIsReal: a Prince http://t.co/8sQRXFabmC'
p66
sg10
I0
ssI9
(dp67
g2
(lp68
S'so.'
p69
aS'milli!'
p70
aS'http://t.co/c6kk5Hc0BT'
p71
aS'album'
p72
asg8
S'RT @RapGenius: Drizzy just did a milli! The first album in 2015 to do so. http://t.co/c6kk5Hc0BT'
p73
sg10
I0
ssI10
(dp74
g2
(lp75
S'http://t.co/c0G1NHQlOP'
p76
aS'http://t.co/VdlxCUkqku'
p77
aS'Specialist'
p78
aS'North'
p79
asg8
S'Looking for a #Hospital #Sales Specialist - Detroit North #jobs http://t.co/c0G1NHQlOP http://t.co/VdlxCUkqku'
p80
sg10
I0
ssI11
(dp81
g2
(lp82
S'http://t.co/yMnMpnX0mc'
p83
aS'Too'
p84
aS'OnePlus2'
p85
aS'GiveAway'
p86
asg8
S'I Just Entered OnePlus2 GiveAway From @gizmochina You Can Too from http://t.co/yMnMpnX0mc   #OnePlus2GizmoGiveAway #Giveaway'
p87
sg10
I0
ssI12
(dp88
g2
(lp89
S'\\U0001f604\\U0001f44d\\U0001f3fc'
p90
aS'Deanna,'
p91
aS'@writerly_dee'
p92
aS'@SylarShang'
p93
asg8
S"@writerly_dee   Deanna,  I'll leave that to you.  \\U0001f604\\U0001f44d\\U0001f3fc   @SylarShang"
p94
sg10
I0
ssI13
(dp95
g2
(lp96
S'really?'
p97
aS'@map___'
p98
aS'movie'
p99
aS'thought'
p100
asg8
S'@map___ really? I thought that was a movie \\U0001f602'
p101
sg10
I0
ssI14
(dp102
g2
(lp103
S'watching'
p104
aS'sitcoms...'
p105
aS"nights'"
p106
aS'dream'
p107
asg8
S"Back to watching my Korean sitcoms... Hope I don't have another dream like last nights'"
p108
sg10
I0
ssI15
(dp109
g2
(lp110
S'switch'
p111
aS'named'
p112
aS'house'
p113
aS'glass'
p114
asg8
S"Let me tell you all a story about a boss named Larry\nYeah, Lorry was a boss in a big glass house\nBut switch that boss cause I'm an #Alphabet"
p115
sg10
I0
ssI16
(dp116
g2
(lp117
S'seeing'
p118
aS'our'
p119
aS'generation'
p120
aS'front'
p121
asg8
S'We are seeing a whole generation being formed in front of our eyes lol ..\\U0001f476\\U0001f3fd'
p122
sg10
I0
ssI17
(dp123
g2
(lp124
S'will*'
p125
aS'http://t.co/YPyetqV2ml'
p126
aS'http://t.co/I2Fr\\u2026'
p127
aS'SAFE'
p128
asg8
S'RT @NiftyFollow: I will* give You 70,000+ Fast and SAFE Twitter Followers for $25 http://t.co/YPyetqV2ml via @MyCheapJobss http://t.co/I2Fr\\u2026'
p129
sg10
I0
ssI18
(dp130
g2
(lp131
S'will*'
p132
aS'http://t.co/YPyetqV2ml'
p133
aS'http://t.co/I2Fr\\u2026'
p134
aS'SAFE'
p135
asg8
S'RT @NiftyFollow: I will* give You 70,000+ Fast and SAFE Twitter Followers for $25 http://t.co/YPyetqV2ml via @MyCheapJobss http://t.co/I2Fr\\u2026'
p136
sg10
I0
ssI19
(dp137
g2
(lp138
S'very'
p139
aS'turns'
p140
aS'second'
p141
aS'light'
p142
asg8
S'RT @SincerelyTumblr: nothing is worse than people who honk at you the very second the light turns green\n\nI AM THE LEADER OF THE WOLF PACK Y\\u2026'
p143
sg10
I0
ssI20
(dp144
g2
(lp145
S'mind'
p146
aS'fine'
p147
aS'@Nashgrier:'
p148
aS'simple'
p149
asg8
S'RT @Nashgrier: I guess if I was simple in the mind everything would be fine'
p150
sg10
I0
ssI21
(dp151
g2
(lp152
S'done\\U0001f480\\U0001f480'
p153
aS'@connorjustus'
p154
aS'@WeLoveRobDyrdek'
p155
aS"I'm"
p156
asg8
S"@connorjustus @WeLoveRobDyrdek I'm done\\U0001f480\\U0001f480"
p157
sg10
I0
ssI22
(dp158
g2
(lp159
S'what?'
p160
aS'beer?'
p161
aS'With'
p162
aS'dad'
p163
asg8
S'With dad on a beer? what?'
p164
sg10
I0
ssI23
(dp165
g2
(lp166
S'yea'
p167
aS'work'
p168
aS'@tewanii'
p169
aS'tho'
p170
asg8
S"@tewanii yea I'm talking about after work tho"
p171
sg10
I0
ssI24
(dp172
g2
(lp173
S'woke'
p174
aS'nap'
p175
aS'k'
p176
aS'NAP'
p177
asg8
S"I took my little nap &amp; when I woke up k thought it was 7 , so I was like I GOT A 3 HOUR NAP , IM SO ENERGIZED  &amp; than I was like oh it's 5"
p178
sg10
I0
ssI25
(dp179
g2
(lp180
S'hungry'
p181
aS'http://t.co/7Ft59RmQjs'
p182
aS'asks'
p183
aS"i'm"
p184
asg8
S"RT @feminine: when someone asks me if i'm hungry http://t.co/7Ft59RmQjs"
p185
sg10
I0
ssI26
(dp186
g2
(lp187
S'ring'
p188
aS'know..."Why'
p189
aS'it?"'
p190
aS"don\\'t"
p191
asg8
S'I don\\\'t know..."Why don\\\'t you just Alphabet it?" just doesn\\\'t have the same ring to it, Google.'
p192
sg10
I0
ssI27
(dp193
g2
(lp194
S'kick'
p195
aS'butt!'
p196
aS'Dear'
p197
aS'Anxiety,'
p198
asg8
S'RT @ZozeeBo: Dear Anxiety, one day I will kick your butt!'
p199
sg10
I0
ssI28
(dp200
g2
(lp201
S'sensitive'
p202
aS'sassy'
p203
aS'mouth'
p204
aS'me)'
p205
asg8
S'RT @feminine: when u have a sassy mouth but hella sensitive at the same time (aka me)'
p206
sg10
I0
ssI29
(dp207
g2
(lp208
S'white'
p209
aS'well'
p210
aS'shitty'
p211
aS'podcast'
p212
asg8
S'Listen! @BrendanSchaub on his podcast "I hate F\\\'n white people." ... Yeah well I hate shitty fighters.'
p213
sg10
I0
ssI30
(dp214
g2
(lp215
S'http://t.co/NBAq76K90D'
p216
aS'@SoReIatable:'
p217
aS'need'
p218
aS'\\U0001f60d'
p219
asg8
S'RT @SoReIatable: I need all of this \\U0001f60d http://t.co/NBAq76K90D'
p220
sg10
I0
ssI31
(dp221
g2
(lp222
S'http://t\\u2026'
p223
aS'WORLD'
p224
aS'WONDERFUL'
p225
aS'WISH'
p226
asg8
S"RT @ayyeeeliam: I WISH THEM ALL THE BEST AND LUCK OF THE WORLD AND I'M GLAD THEY GOT TO HAVE A WONDERFUL DAY \n\n#BelieveInMagicBall http://t\\u2026"
p227
sg10
I0
ssI32
(dp228
g2
(lp229
S'stamped'
p230
aS'singleeeeee'
p231
aS'\\U0001f609\\U0001f60f'
p232
aS".....it's"
p233
asg8
S"I'm so singleeeeee .....it's stamped #facts \\U0001f609\\U0001f60f"
p234
sg10
I0
ssI33
(dp235
g2
(lp236
S'where'
p237
aS'weeks'
p238
aS'wants'
p239
aS'start'
p240
asg8
S'when you have two weeks to plan a party, idk where to start I shulda beeen did this all i know is he wants incredible hulk .. THATS ALL. \\U0001f629'
p241
sg10
I0
ssI34
(dp242
g2
(lp243
S'http://t.co/QAynnSif3G'
p244
aS'\\U0001f3b6\\u2708\\ufe0f'
p245
aS'@grannywinkle:'
p246
aS'love'
p247
asg8
S'RT @grannywinkle: I love this \\U0001f3b6\\u2708\\ufe0f http://t.co/QAynnSif3G'
p248
sg10
I0
ssI35
(dp249
g2
(lp250
S'wishes'
p251
aS'tumor'
p252
aS's\\u2026'
p253
aS'eyesight'
p254
asg8
S'RT @dimpledlouve: that little girl eleanor has a brain tumor and she lost her eyesight so louis told her that he wishes she could see how s\\u2026'
p255
sg10
I0
ssI36
(dp256
g2
(lp257
S'followers'
p258
aS'aye'
p259
aS'@omggamelia'
p260
aS'then'
p261
asg8
S'@omggamelia then I lost 3 followers aye'
p262
sg10
I0
ssI37
(dp263
g2
(lp264
S'youre'
p265
aS'https://t.co/JWE3cDQ120'
p266
aS'\\U0001f62d\\U0001f602'
p267
aS'Martha'
p268
asg8
S'Lmfao Martha \\U0001f62d\\U0001f602 youre too much  https://t.co/JWE3cDQ120'
p269
sg10
I0
ssI38
(dp270
g2
(lp271
S'speaker'
p272
aS'does'
p273
aS'borrow'
p274
aS'anybody'
p275
asg8
S'does anybody have a speaker I could borrow'
p276
sg10
I0
ssI39
(dp277
g2
(lp278
S'realize'
p279
aS'hmu'
p280
aS'finally'
p281
aS'do.'
p282
asg8
S"RT @SexualGif: Don't hmu when you finally realize that no one else got you like I do."
p283
sg10
I0
ssI40
(dp284
g2
(lp285
S'loads'
p286
aS'gold\\u2764\\ufe0f\\u2728'
p287
aS'Goodnight,'
p288
aS'@Louis_Tomlinson'
p289
asg8
S"Goodnight, love you loads @Louis_Tomlinson you're a man with a heart made from gold\\u2764\\ufe0f\\u2728"
p290
sg10
I0
ssI41
(dp291
g2
(lp292
S'https://t.co/qbvpUSPzv9'
p293
aS'YALL'
p294
aS'CANNOT'
p295
aS'BREATHEEEEEE'
p296
asg8
S'RT @WORIDSTARHlPHOP: YALL I CANNOT FUCKING BREATHEEEEEE https://t.co/qbvpUSPzv9'
p297
sg10
I0
ssI42
(dp298
g2
(lp299
S'explain'
p300
aS'Harmony'
p301
aS'Fifth'
p302
aS'@anxietylmj:'
p303
asg8
S"RT @anxietylmj: Fifth Harmony makes me so happy I just can't explain it"
p304
sg10
I0
ssI43
(dp305
g2
(lp306
S'hazelnuts'
p307
aS'Saying'
p308
aS'@Delbud'
p309
aS'right'
p310
asg8
S'@Delbud but in Saying that he probably right I love hazelnuts lol'
p311
sg10
I0
ssI44
(dp312
g2
(lp313
S'upset.'
p314
aS'http://t.co/lfttqbBn93'
p315
aS'@the1Dscene:'
p316
aS'-Mari'
p317
asg8
S'RT @the1Dscene: I am upset. -Mari http://t.co/lfttqbBn93'
p318
sg10
I0
ssI45
(dp319
g2
(lp320
S'http://t.co/YPCaXHPAeI'
p321
aS'Shocker'
p322
aS'Is'
p323
aS'Coming'
p324
asg8
S'A #BernieSanders Shocker Is Coming http://t.co/YPCaXHPAeI'
p325
sg10
I0
ssI46
(dp326
g2
(lp327
S'trespass'
p328
aS'property?'
p329
aS'presence'
p330
aS'owner'
p331
asg8
S'@WesleyLowery Trespass? Can cop give legal notice of trespass if owner allows presence on property?  http://t.co/JJm7xbj52J'
p332
sg10
I0
ssI47
(dp333
g2
(lp334
S'feeling'
p335
aS'earlier...'
p336
aS'dumb?!'
p337
aS'ALWAYS'
p338
asg8
S"@lustylouz now I'm feeling even worse for not following you earlier... why am I so dumb?! I would ALWAYS help you! I want you to be okay and"
p339
sg10
I0
ssI48
(dp340
g2
(lp341
S'xception'
p342
asg8
g342
sg10
I0
ssI49
(dp343
g2
(lp344
S'swinging'
p345
aS'straight'
p346
aS'scared'
p347
aS'put'
p348
asg8
S"I wish my mom would put me on beyond scared straight I'd catch a charge for swinging on them"
p349
sg10
I0
ssI50
(dp350
g2
(lp351
S'pumpfake'
p352
aS'hit'
p353
aS'bitch'
p354
aS'Omg'
p355
asg8
S'Omg this bitch hit a nigga with a pumpfake'
p356
sg10
I0
ssI51
(dp357
g2
(lp358
S'xception'
p359
asg8
g359
sg10
I0
ssI52
(dp360
g2
(lp361
S'tried'
p362
aS'still'
p363
aS'rough'
p364
aS'employer,'
p365
asg8
S"I'm still with my employer, just had a rough day, tried to call in sick."
p366
sg10
I0
ssI53
(dp367
g2
(lp368
S'sensitive'
p369
aS'sassy'
p370
aS'mouth'
p371
aS'me)'
p372
asg8
S'RT @feminine: when u have a sassy mouth but hella sensitive at the same time (aka me)'
p373
sg10
I0
ssI54
(dp374
g2
(lp375
S'yall'
p376
aS'wow'
p377
aS'views'
p378
aS'too!!\\u2026'
p379
asg8
S'RT @MahoganyLOX: wow \\U0001f648 50k views already!!! that\\u2019s amazing \\U0001f495 I\\u2019m glad yall liked it! https://t.co/317ImUHYzu thanks for all the likes too!!\\u2026'
p380
sg10
I0
ssI55
(dp381
g2
(lp382
S'@carterreynolds:'
p383
aS'happy'
p384
aS'how'
p385
aS'miss'
p386
asg8
S'RT @carterreynolds: i miss how happy i was with you'
p387
sg10
I0
ssI56
(dp388
g2
(lp389
S'xception'
p390
asg8
g390
sg10
I0
ssI57
(dp391
g2
(lp392
S'voter?'
p393
aS'not!'
p394
aS'condescending'
p395
aS'Republican'
p396
asg8
S'@krauthammer Are you being a little condescending to the Republican voter?  I hope not!'
p397
sg10
I0
ssI58
(dp398
g2
(lp399
S'since'
p400
aS'parents'
p401
aS'lame'
p402
aS'esp'
p403
asg8
S'@mslovelyyyy_ same lol both my parents esp since my dad was a Dj back then \\U0001f604 yeah lol everyone is lame now'
p404
sg10
I0
ssI59
(dp405
g2
(lp406
S'noe\\U0001f62d'
p407
aS'Ivan'
p408
aS'miss'
p409
aS'and'
p410
asg8
S'I miss Ivan and noe\\U0001f62d'
p411
sg10
I0
ssI60
(dp412
g2
(lp413
S'today'
p414
aS'now,'
p415
aS'done'
p416
aS'One'
p417
asg8
S"Guys, I'm going to sleep now, I'm done with today \nBut I love Niall\n#MTVHottest One Direction"
p418
sg10
I0
ssI61
(dp419
g2
(lp420
S'Robyn'
p421
aS'@_thuggedOut:'
p422
aS'@941Morgan'
p423
aS'got'
p424
asg8
S'RT @_thuggedOut: @941Morgan I got you and Robyn on there'
p425
sg10
I0
ssI62
(dp426
g2
(lp427
S'stopp'
p428
aS'sending'
p429
aS'pics,'
p430
aS'espically'
p431
asg8
S"&amp;&amp; stopp sending me those nasty ass dick pics, espically if I don't know you!"
p432
sg10
I0
ssI63
(dp433
g2
(lp434
S'xception'
p435
asg8
g435
sg10
I0
ssI64
(dp436
g2
(lp437
S'WHY'
p438
aS'THOSE'
p439
aS'SUCH'
p440
aS'LOT'
p441
asg8
S'RT @JustNuteIla: WHY DO A LOT OF GUYS HAVE SUCH LONG EYELASHES THAT THEY DONT EVEN NEED I WANT THOSE EYELASHES'
p442
sg10
I0
ssI65
(dp443
g2
(lp444
S'yall'
p445
aS'wow'
p446
aS'views'
p447
aS'too!!\\u2026'
p448
asg8
S'RT @MahoganyLOX: wow \\U0001f648 50k views already!!! that\\u2019s amazing \\U0001f495 I\\u2019m glad yall liked it! https://t.co/317ImUHYzu thanks for all the likes too!!\\u2026'
p449
sg10
I0
ssI66
(dp450
g2
(lp451
S'louis'
p452
aS'much'
p453
aS'so'
p454
aS'love'
p455
asg8
S'I love louis so much'
p456
sg10
I0
ssI67
(dp457
g2
(lp458
S'money'
p459
aS'September'
p460
aS'Maybe'
p461
aS'think'
p462
asg8
S"Maybe if I can make money in September I'll think about it"
p463
sg10
I0
ssI68
(dp464
g2
(lp465
S'service'
p466
aS"isn't"
p467
aS'enough.'
p468
aS'care.'
p469
asg8
S"@vegasnewsnow took them fucking long enough. Their service isn't the best. So I really dont care. \\U0001f602"
p470
sg10
I0
ssI69
(dp471
g2
(lp472
S'@__stuckOnLEXX'
p473
aS'http://t.co/x0lZSCsXjH'
p474
aS'\\xbb'
p475
aS'[Mixtape]'
p476
asg8
S'@__stuckOnLEXX [Mixtape] Tae Luv - Life Of A Swankster 3 EP  @DJ837 @Spinrilla \\xbb http://t.co/x0lZSCsXjH'
p477
sg10
I0
ssI70
(dp478
g2
(lp479
S'forever'
p480
aS'dealing'
p481
aS'annoying'
p482
aS'@babetexts:'
p483
asg8
S'RT @babetexts: i just want to sleep forever because dealing with people is annoying as hell'
p484
sg10
I0
ssI71
(dp485
g2
(lp486
S'week;'
p487
aS'hospital'
p488
aS'father'
p489
aS'died'
p490
asg8
S'RT @keloland: Police want to talk with the father of a baby who died at a Sioux Falls hospital last week; @KELOBrady has the story on #KELO\\u2026'
p491
sg10
I0
ssI72
(dp492
g2
(lp493
S'microKorg'
p494
aS'http://t.co/VSlGJFjv1j'
p495
aS'Synthesizer/Vocoder.'
p496
aS'Shipping!'
p497
asg8
S'Korg microKorg Synthesizer/Vocoder. 117EX-00 Free U.S. Shipping! http://t.co/VSlGJFjv1j'
p498
sg10
I0
ssI73
(dp499
g2
(lp500
S'out\\U0001f602prepare'
p501
aS'gonna'
p502
aS'cavite\\U0001f602'
p503
aS'bruv,'
p504
asg8
S'@xx_angel_96 yeah bruv, gonna go all out\\U0001f602prepare to have a food baby before you leave cavite\\U0001f602'
p505
sg10
I0
ssI74
(dp506
g2
(lp507
S'ye'
p508
aS'mum'
p509
aS'http://t.co/KOsjNZevne'
p510
aS'drugs'
p511
asg8
S'RT @TieganSmith3: Naw mum am no on drugs a just love ye http://t.co/KOsjNZevne'
p512
sg10
I0
ssI75
(dp513
g2
(lp514
S'yelping'
p515
aS'small'
p516
aS'dog?'
p517
aS'anything'
p518
asg8
S'is there anything worse than a small yelping dog? no'
p519
sg10
I0
ssI76
(dp520
g2
(lp521
S'support'
p522
aS'such'
p523
aS'liam'
p524
aS'goes'
p525
asg8
S'RT @addictofIwt: liam is such a good friend he always goes to everything to support the boys and cheers them on and makes them feel good i \\u2026'
p526
sg10
I0
ssI77
(dp527
g2
(lp528
S'sweet'
p529
aS'folks'
p530
aS'cantaloupe'
p531
aS'\\u2026..'
p532
asg8
S"ain't nothing like a sweet cantaloupe folks \\u2026.. NOTH-ING \\U0001f60c"
p533
sg10
I0
ssI78
(dp534
g2
(lp535
S'http://t.co/rRUDIzjMQu'
p536
aS'@BestVinesEver:'
p537
aS"haven't"
p538
aS'close'
p539
asg8
S"RT @BestVinesEver: When you haven't seen your best friend in close to a year http://t.co/rRUDIzjMQu"
p540
sg10
I0
ssI79
(dp541
g2
(lp542
S'soul'
p543
aS'lana'
p544
aS'embody'
p545
aS'del'
p546
asg8
S"the beat in high by the beach is fucking sick. i want to embody lana del Rey's soul in my own one day"
p547
sg10
I0
ssI80
(dp548
g2
(lp549
S'supporting'
p550
aS'sorry'
p551
aS'show'
p552
aS'fashion'
p553
asg8
S"RT @Louis_Tomlinson: Hey @RalphLauren and #RLKids supporting #literacy tonight at a children's fashion show in NYC. I'm sorry to miss it !!"
p554
sg10
I0
ssI81
(dp555
g2
(lp556
S'victory'
p557
aS'outshine'
p558
aS'media'
p559
aS'death.'
p560
asg8
S'RT @AndrArshavin23: I think that in media Mancester City victory over United will outshine even  Gaddafi death.'
p561
sg10
I0
ssI82
(dp562
g2
(lp563
S'joke'
p564
aS'http://t.co/NCU8lEjirJ'
p565
aS"There's"
p566
aS'Chinese'
p567
asg8
S"RT @SINice: There's a Chinese food joke here somewhere http://t.co/NCU8lEjirJ"
p568
sg10
I0
ssI83
(dp569
g2
(lp570
S'while'
p571
aS'rn'
p572
aS'drop'
p573
aS'chill'
p574
asg8
S"Hoping I don't drop my phone while I chill in this bath rn \\U0001f62a"
p575
sg10
I0
ssI84
(dp576
g2
(lp577
S'touch'
p578
aS'though'
p579
aS'talked'
p580
aS'stay'
p581
asg8
S'RT @girlposts: it\\u2019s hard to stay in touch with internet friends I just want u to know that even though we havent talked in a long time I st\\u2026'
p582
sg10
I0
ssI85
(dp583
g2
(lp584
S'sum'
p585
aS'row.'
p586
aS'mo'
p587
aS'5'
p588
asg8
S'5 in a row. I want sum mo'
p589
sg10
I0
ssI86
(dp590
g2
(lp591
S'resignation'
p592
aS'emotional'
p593
aS"Miliband's"
p594
aS'@_tarin11:'
p595
asg8
S"RT @_tarin11: #resultsdayexcuses i was too emotional over Miliband's resignation"
p596
sg10
I0
ssI87
(dp597
g2
(lp598
S'posted'
p599
aS'photo'
p600
aS'http://t.co/2HY1eFmECd'
p601
aS'Facebook'
p602
asg8
S'I posted a new photo to Facebook http://t.co/2HY1eFmECd'
p603
sg10
I0
ssI88
(dp604
g2
(lp605
S'wasted'
p606
aS'tha\\u2026'
p607
aS'sucks'
p608
aS'life..'
p609
asg8
S"RT @BBYTHICC: Shit really sucks when you invest so much time into someone &amp; then it's just over like lol you wasted my life.. Can I get tha\\u2026"
p610
sg10
I0
ssI89
(dp611
g2
(lp612
S'waste'
p613
aS'time.'
p614
aS'compete'
p615
aS'Im'
p616
asg8
S"If I'm talking to a girl and she's talking to someone else at the same time don't even waste my time. Im not here trying to compete for you"
p617
sg10
I0
ssI90
(dp618
g2
(lp619
S'today...'
p620
aS'school'
p621
aS'peaceful'
p622
aS'continue'
p623
asg8
S'If I continue to do like I did today... school will be peaceful \\U0001f60c'
p624
sg10
I0
ssI91
(dp625
g2
(lp626
S'yall'
p627
aS'wow'
p628
aS'views'
p629
aS'too!!\\u2026'
p630
asg8
S'RT @MahoganyLOX: wow \\U0001f648 50k views already!!! that\\u2019s amazing \\U0001f495 I\\u2019m glad yall liked it! https://t.co/317ImUHYzu thanks for all the likes too!!\\u2026'
p631
sg10
I0
ssI92
(dp632
g2
(lp633
S'smiles'
p634
aS'keeps'
p635
aS'holding'
p636
aS'hand'
p637
asg8
S'RT @1DinTooDeep: Apparently there is a little Princess that keeps following Louis around &amp; holding his hand &amp; he just smiles &amp; lets her #Be\\u2026'
p638
sg10
I0
ssI93
(dp639
g2
(lp640
S'walk'
p641
aS'night'
p642
aS'http://t.co/XBwAWBw79r'
p643
aS'\\U0001f313\\U0001f30c\\U0001f30a'
p644
asg8
S'RT @RelaxVibes: I wanna walk the beach at night man \\U0001f313\\U0001f30c\\U0001f30a http://t.co/XBwAWBw79r'
p645
sg10
I0
ssI94
(dp646
g2
(lp647
S'taste'
p648
aS'street'
p649
aS'shirts.'
p650
aS'love.'
p651
asg8
S"The girl who lives in the apartments across the street has a fashinonable burton bag and great taste in shirts. I'm in love."
p652
sg10
I0
ssI95
(dp653
g2
(lp654
S'luv'
p655
aS'butts'
p656
aS'Spanks'
p657
aS'@_mewisebook'
p658
asg8
S'@SoFunnyTexts @_mewisebook I luv butts 4ever... Spanks'
p659
sg10
I0
ssI96
(dp660
g2
(lp661
S'@austinshortreed'
p662
aS'http://t.co/x0lZSCsXjH'
p663
aS'\\xbb'
p664
aS'[Mixtape]'
p665
asg8
S'@austinshortreed [Mixtape] Tae Luv - Life Of A Swankster 3 EP  @DJ837 @Spinrilla \\xbb http://t.co/x0lZSCsXjH'
p666
sg10
I0
ssI97
(dp667
g2
(lp668
S"there's"
p669
aS'personality'
p670
aS'old'
p671
aS'old'
p672
asg8
S"@ThugLifeRhymes there's an old old movie \\U0001f602\\U0001f602 but the story lets characters have a personality it's pretty cool lol"
p673
sg10
I0
ssI98
(dp674
g2
(lp675
S'WE'
p676
aS'WAY.'
p677
aS'VOTING,'
p678
aS'VOTE'
p679
asg8
S'RT @avrilkaty02: DONT STOP VOTING, WE DONT WANT DIRECTIONERS TO CATCH UP. LETS KEEP IT THIS WAY. EVERY RETWEET IS A VOTE\n#MTVHottest Justin\\u2026'
p680
sg10
I0
ssI99
(dp681
g2
(lp682
S'pretends'
p683
aS'makes\\u2026'
p684
aS'clearly'
p685
aS'care'
p686
asg8
S"RT @hvlfbreed: Nothing worse than a person that pretends to care about you. Appreciate the people who clearly don't respect you, that makes\\u2026"
p687
sg10
I0
ss.