(dp0
S''
p1
I8
sS'ever?'
p2
I1
sS'sleep'
p3
I2
sS'\\u2026..'
p4
I1
sS'hate'
p5
I1
sS'party,'
p6
I1
sS'relationships'
p7
I1
sS'tweet'
p8
I1
sS'sweetest'
p9
I1
sS'\\U0001f495'
p10
I3
sS'MUCH'
p11
I1
sS'\\U0001f602\\U0001f602\\U0001f602'
p12
I1
sS'sorry'
p13
I1
sS'@camerondallas'
p14
I1
sS'@avrilkaty02:'
p15
I1
sS'school'
p16
I1
sS'SQUAD.'
p17
I1
sS'http://t.co/VdlxCUkqku'
p18
I1
sS'GUNNA'
p19
I1
sS'\\U0001f49c'
p20
I1
sS'straight'
p21
I1
sS'HAPPENED'
p22
I1
sS'tired'
p23
I2
sS'me)'
p24
I2
sS'second'
p25
I1
sS'street'
p26
I1
sS'Shocker'
p27
I1
sS'me?'
p28
I1
sS'even'
p29
I7
sS'ht\\u2026'
p30
I1
sS'right\\u2764'
p31
I1
sS'new'
p32
I4
sS'ever'
p33
I1
sS'told'
p34
I3
sS'(aka'
p35
I2
sS"haters,I'm"
p36
I1
sS'never'
p37
I2
sS'here'
p38
I4
sS'Follow'
p39
I1
sS'Ohio'
p40
I1
sS'@Spinrilla'
p41
I2
sS'kids'
p42
I2
sS'k'
p43
I1
sS"i'm"
p44
I3
sS'NOW'
p45
I1
sS'City'
p46
I1
sS'@RalphLauren'
p47
I1
sS'FUCK'
p48
I1
sS'@futsurehearts:'
p49
I1
sS'@Chief_Keesh:'
p50
I1
sS'would'
p51
I6
sS'hospital'
p52
I1
sS'call'
p53
I3
sS'right,'
p54
I1
sS'type'
p55
I1
sS'tell'
p56
I3
sS"wouldn\\'t"
p57
I1
sS'haha'
p58
I1
sS'it'
p59
I11
sS'phone'
p60
I2
sS'@dimpledlouve:'
p61
I1
sS'hold'
p62
I1
sS'EVEN'
p63
I1
sS'night\\U0001f4a6\\U0001f30a'
p64
I1
sS'mo'
p65
I1
sS'work'
p66
I1
sS'my'
p67
I18
sS'give'
p68
I5
sS'http://t.co/oVVNIKo6PL'
p69
I1
sS'want'
p70
I10
sS'worse'
p71
I4
sS'end'
p72
I1
sS'@ClaudiaVincen10'
p73
I1
sS'http://t.co/XBwAWBw79r'
p74
I1
sS'how'
p75
I3
sS'amazing'
p76
I3
sS'kebabs'
p77
I1
sS'#trending'
p78
I1
sS'A'
p79
I12
sS'cosign'
p80
I1
sS'after'
p81
I6
sS'HEAR'
p82
I1
sS'movie..'
p83
I1
sS'20/20'
p84
I1
sS'All'
p85
I3
sS'Hoping'
p86
I1
sS'@MissAntoinette_'
p87
I1
sS'green'
p88
I1
sS'keeps'
p89
I1
sS'fan'
p90
I1
sS'@velopaso'
p91
I1
sS'Alphabet'
p92
I1
sS'over'
p93
I6
sS'outshine'
p94
I1
sS'before'
p95
I1
sS'somewhere'
p96
I2
sS','
p97
I1
sS'better'
p98
I1
sS'Android'
p99
I1
sS'weeks'
p100
I1
sS'YALL'
p101
I1
sS'then'
p102
I3
sS'them'
p103
I3
sS'they'
p104
I2
sS'@ACommonFemaIe:'
p105
I1
sS"i\\'m"
p106
I1
sS'MYSELF'
p107
I1
sS'http://t.co/RUBupdimUO'
p108
I1
sS'week;'
p109
I1
sS'earlier...'
p110
I1
sS'victory'
p111
I1
sS'@adidasliIo:'
p112
I1
sS'mean'
p113
I1
sS'sounds'
p114
I1
sS'Favourite'
p115
I1
sS'day,'
p116
I1
sS'got'
p117
I3
sS'rn'
p118
I1
sS'@krauthammer'
p119
I1
sS'day!'
p120
I2
sS'https://t.co/eLz9QPzWwh'
p121
I1
sS"you're"
p122
I5
sS'coins.'
p123
I1
sS'Gaddafi'
p124
I1
sS'singleeeeee'
p125
I1
sS'Vita'
p126
I1
sS'soundcloud'
p127
I1
sS'September'
p128
I1
sS'@Ford'
p129
I1
sS'Chair'
p130
I1
sS'clothes'
p131
I1
sS'Going'
p132
I1
sS'another'
p133
I1
sS'toy'
p134
I1
sS'service'
p135
I1
sS'girls'
p136
I2
sS'SEE'
p137
I1
sS'needed'
p138
I1
sS'2'
p139
I1
sS'too'
p140
I3
sS'took'
p141
I2
sS'wasted'
p142
I1
sS'sycamore'
p143
I1
sS'dog?'
p144
I1
sS'Unip'
p145
I1
sS'feeling'
p146
I1
sS'fashion'
p147
I1
sS'mind'
p148
I1
sS'@alllthelovex:'
p149
I1
sS'raw'
p150
I1
sS'seen'
p151
I4
sS'@TaylorMarieHill'
p152
I1
sS'do.'
p153
I1
sS'pics,'
p154
I1
sS'-'
p155
I5
sS'@KELOBrady'
p156
I1
sS'though'
p157
I2
sS'mouth'
p158
I2
sS'Ivan'
p159
I1
sS'APPARENTLY'
p160
I1
sS'Attorney'
p161
I1
sS'FACE'
p162
I1
sS'came'
p163
I1
sS'saying'
p164
I1
sS'#resultsdayexcuses'
p165
I1
sS'cannot.'
p166
I1
sS'Teaser:'
p167
I1
sS'buss'
p168
I1
sS'explain'
p169
I1
sS'acne'
p170
I1
sS"baby's"
p171
I1
sS'Listen!'
p172
I1
sS'Free'
p173
I1
sS'Fred'
p174
I1
sS'Watson.'
p175
I1
sS'folks'
p176
I1
sS'personality'
p177
I1
sS'do'
p178
I7
sS'watch'
p179
I1
sS'shirts.'
p180
I1
sS'I\\u2019m'
p181
I3
sS'@JDadolescente:'
p182
I1
sS'nasty'
p183
I2
sS'SERIOUSLY?'
p184
I1
sS'bag'
p185
I1
sS'bad'
p186
I1
sS'https://t\\u2026'
p187
I1
sS'Jackson'
p188
I1
sS'w/'
p189
I1
sS'SUCH'
p190
I1
sS'@_thuggedOut:'
p191
I1
sS'best'
p192
I2
sS'Sioux'
p193
I1
sS'said'
p194
I1
sS'away'
p195
I1
sS'player.'
p196
I1
sS'fineapple'
p197
I1
sS"there's"
p198
I1
sS'mum'
p199
I1
sS'[Mixtape]'
p200
I2
sS'Raven'
p201
I1
sS'we'
p202
I4
sS"Rey's"
p203
I1
sS'LOVE'
p204
I1
sS'nature'
p205
I1
sS'blaster'
p206
I1
sS'boss'
p207
I1
sS'wear'
p208
I1
sS'now..'
p209
I1
sS'cop'
p210
I1
sS'protect'
p211
I1
sS'against'
p212
I1
sS'players'
p213
I1
sS'asked'
p214
I2
sS'@xx_angel_96'
p215
I1
sS'eyesight'
p216
I1
sS'condescending'
p217
I1
sS'dues...but'
p218
I1
sS"State's"
p219
I1
sS'trust'
p220
I1
sS'now,'
p221
I1
sS'now.'
p222
I1
sS'@SkyDX'
p223
I1
sS'asks'
p224
I1
sS"I've"
p225
I3
sS'been'
p226
I2
sS'.'
p227
I1
sS'much'
p228
I5
sS'@BrendanSchaub'
p229
I1
sS'@jazmineheredia_'
p230
I1
sS'life'
p231
I1
sS'"Liam'
p232
I1
sS'drugs'
p233
I1
sS'\\U0001f60a\\U0001f60a\\U0001f60a\\U0001f60a\\U0001f60a\\U0001f60a\\U0001f60a\\U0001f60a\\U0001f60a\\U0001f60a\\U0001f60a\\U0001f60a\\U0001f60a\\U0001f60a\\U0001f60a\\U0001f60a\\U0001f60a\\U0001f60a\\U0001f60a\\U0001f60a\\U0001f60a\\U0001f60a\\U0001f60a'
p234
I1
sS'Martin-Luther-Jesus-Ghandi."'
p235
I1
sS'@DJ837'
p236
I2
sS'personally'
p237
I1
sS'catch'
p238
I1
sS"Can't"
p239
I1
sS'chill'
p240
I1
sS'Justin\\u2026'
p241
I1
sS'near'
p242
I1
sS'http://t\\u2026'
p243
I1
sS'On'
p244
I1
sS'is'
p245
I16
sS'#Hospital'
p246
I1
sS'"i'
p247
I1
sS'im'
p248
I1
sS'Naw'
p249
I1
sS'LOT'
p250
I1
sS'in'
p251
I30
sS'http://t.co/Ovhu0KdMrK'
p252
I1
sS'if'
p253
I12
sS'@d92008'
p254
I1
sS'make'
p255
I3
sS'"I'
p256
I1
sS'honk'
p257
I1
sS'split'
p258
I1
sS'Of'
p259
I3
sS'http://t.co/7Ft59RmQjs'
p260
I1
sS'@TupacShakurTS:'
p261
I1
sS'\\U0001f602\\U0001f602'
p262
I1
sS'@JustNuteIla:'
p263
I1
sS'Maybe'
p264
I1
sS'hand'
p265
I1
sS'characters'
p266
I1
sS'thoughts'
p267
I1
sS'butter'
p268
I1
sS'@SoFunnyTexts'
p269
I1
sS'Anxiety,'
p270
I1
sS'youre'
p271
I1
sS'tho'
p272
I2
sS'the'
p273
I34
sS'PAINTED'
p274
I1
sS'milli!'
p275
I1
sS'@omggamelia'
p276
I1
sS'just'
p277
I18
sS'THAT'
p278
I2
sS'yea'
p279
I1
sS'photo'
p280
I1
sS'hahahha'
p281
I1
sS'thanks'
p282
I3
sS'human'
p283
I2
sS'http://t.co/jzspNdZGtJ'
p284
I1
sS'yes'
p285
I1
sS'yet'
p286
I1
sS'Happy'
p287
I2
sS'Inevitably'
p288
I1
sS'had'
p289
I2
sS'KEEP'
p290
I1
sS'\\xa310k'
p291
I1
sS'o\\u2026'
p292
I2
sS'has'
p293
I5
sS'@girlposts:'
p294
I2
sS'@_mewisebook'
p295
I1
sS'ALL.'
p296
I1
sS'dumb?!'
p297
I1
sS'dreams'
p298
I1
sS'@imzsworld'
p299
I1
sS'remind'
p300
I1
sS'Are'
p301
I1
sS'night'
p302
I1
sS'Prince'
p303
I1
sS'portuguese'
p304
I1
sS'http://t.co/lfttqbBn93'
p305
I1
sS'right'
p306
I2
sS'old'
p307
I1
sS'creek'
p308
I1
sS'people'
p309
I4
sS'dead'
p310
I1
sS'Followers'
p311
I3
sS'HE'
p312
I1
sS'Life'
p313
I2
sS'for'
p314
I19
sS'@CauseWereGuys:'
p315
I1
sS'\\U0001f44c\\U0001f4af'
p316
I1
sS's\\u2026'
p317
I1
sS'everything'
p318
I3
sS'Hi'
p319
I1
sS'Facebook'
p320
I1
sS'He'
p321
I1
sS'pls'
p322
I1
sS'bold'
p323
I1
sS'http://t.co/VSlGJFjv1j'
p324
I1
sS'Swing'
p325
I1
sS'4ever...'
p326
I1
sS'snacks?'
p327
I1
sS'dinner'
p328
I1
sS'#freeoralsex'
p329
I1
sS'bath'
p330
I1
sS'@SincerelyTumblr:'
p331
I1
sS'presence'
p332
I1
sS'selfie'
p333
I1
sS'two'
p334
I2
sS".....it's"
p335
I1
sS'donated'
p336
I1
sS'WAY.'
p337
I1
sS'@baemorley'
p338
I1
sS'Martha'
p339
I1
sS'FREAKING'
p340
I1
sS'@BestVinesEver:'
p341
I1
sS'@gizmochina'
p342
I1
sS'@Iborinho:'
p343
I1
sS'STUPID'
p344
I2
sS'way'
p345
I1
sS'was'
p346
I8
sS'happy'
p347
I2
sS'@necrosoftgames:'
p348
I1
sS'what?'
p349
I1
sS'so.'
p350
I1
sS'wireless'
p351
I1
sS'heat'
p352
I1
sS'hear'
p353
I1
sS'#mPLACES'
p354
I1
sS'WHY'
p355
I1
sS'emotional'
p356
I1
sS'get\\u2026'
p357
I1
sS'hungry'
p358
I1
sS'whatsoever.'
p359
I1
sS'annoying'
p360
I1
sS'dealer'
p361
I1
sS'shit'
p362
I1
sS'dying'
p363
I1
sS'no'
p364
I6
sS'when'
p365
I10
sS'Falls'
p366
I1
sS'holding'
p367
I1
sS'http://t.co/PulTUU7F6L'
p368
I1
sS'today...'
p369
I1
sS"let's"
p370
I1
sS'fell'
p371
I1
sS'died'
p372
I1
sS'longer'
p373
I1
sS'glass'
p374
I1
sS'http://t.co/J6s9lvnKRl'
p375
I1
sS'time'
p376
I8
sS'So'
p377
I1
sS':)'
p378
I1
sS"doesn\\'t"
p379
I1
sS'battle'
p380
I1
sS':3'
p381
I2
sS'show'
p382
I1
sS'father'
p383
I1
sS'finally'
p384
I1
sS'Let'
p385
I2
sS'#blowjobs'
p386
I1
sS'me'
p387
I11
sS'Oreo'
p388
I1
sS'movie??'
p389
I1
sS'cool'
p390
I2
sS'best.'
p391
I1
sS'Just'
p392
I2
sS'did'
p393
I4
sS'turns'
p394
I1
sS'brother'
p395
I1
sS'leave'
p396
I2
sS'Tae'
p397
I2
sS'loads'
p398
I1
sS'yall'
p399
I3
sS'talked'
p400
I2
sS'says'
p401
I1
sS'regret'
p402
I1
sS'dealing'
p403
I1
sS'OnePlus2'
p404
I1
sS'sign'
p405
I1
sS'@Dvpexx_:'
p406
I1
sS'leukemia.'
p407
I1
sS'Skepta'
p408
I1
sS'@JoshhCOD'
p409
I1
sS'WOLF'
p410
I1
sS'goes'
p411
I1
sS'del'
p412
I1
sS'Me'
p413
I1
sS'supporting'
p414
I1
sS'Emma'
p415
I1
sS'LITERALLY'
p416
I1
sS'makeup'
p417
I1
sS'@100_vines:'
p418
I1
sS'http://t.co/iK8z4s2YAj'
p419
I1
sS'water'
p420
I1
sS'http://t.co/BKNuwZ26Ne'
p421
I1
sS'#facts'
p422
I1
sS'My'
p423
I1
sS'change'
p424
I1
sS'wait'
p425
I1
sS'boy'
p426
I1
sS'Portugal'
p427
I1
sS'reborn.'
p428
I1
sS'Dear'
p429
I1
sS'MY'
p430
I1
sS'Mancester'
p431
I1
sS'REAL'
p432
I1
sS'dick'
p433
I1
sS'love'
p434
I10
sS'extra'
p435
I1
sS'#exgfs'
p436
I1
sS'@Louis_Tomlinson'
p437
I1
sS'When'
p438
I5
sS'@1DinTooDeep:'
p439
I1
sS'RIP'
p440
I1
sS'beer?'
p441
I1
sS'Specialist'
p442
I1
sS'August'
p443
I1
sS'working'
p444
I1
sS'aye'
p445
I1
sS'angry'
p446
I1
sS'http://t.co/dI9tMCYw0n'
p447
I1
sS'today'
p448
I1
sS'Monday,'
p449
I1
sS'@SINice:'
p450
I1
sS'soul'
p451
I1
sS'#sexchat'
p452
I1
sS'can'
p453
I3
sS'following'
p454
I2
sS'making'
p455
I2
sS'trans'
p456
I1
sS'heart'
p457
I2
sS'VOTING,'
p458
I1
sS'http://t.co/yMnMpnX0mc'
p459
I1
sS'Tristan'
p460
I1
sS'Cause'
p461
I1
sS'"Louis'
p462
I1
sS'may'
p463
I1
sS'max'
p464
I1
sS'@_tarin11:'
p465
I1
sS'birthday'
p466
I1
sS'date'
p467
I1
sS'@Flusche'
p468
I1
sS'xception'
p469
I8
sS'guys'
p470
I1
sS'man'
p471
I4
sS'YOU.'
p472
I1
sS'YOU,'
p473
I1
sS'Drizzy'
p474
I1
sS'carriers'
p475
I1
sS'giveaway.'
p476
I1
sS'switch'
p477
I1
sS'so'
p478
I9
sS'talk'
p479
I3
sS'cute'
p480
I1
sS'@AaronCarpenter'
p481
I1
sS'brain'
p482
I1
sS'shake'
p483
I1
sS'still'
p484
I1
sS'THE'
p485
I4
sS'@NiggaNarration:'
p486
I1
sS'RT'
p487
I87
sS'Direction'
p488
I1
sS"he's"
p489
I1
sS'did.'
p490
I1
sS'https://t.co/mEoOWgdGPH'
p491
I1
sS'-Mari'
p492
I1
sS'views'
p493
I3
sS'kids"'
p494
I1
sS'not'
p495
I6
sS'now'
p496
I4
sS'GUYS'
p497
I1
sS'&gt;'
p498
I1
sS'name'
p499
I3
sS'resignation'
p500
I1
sS'drop'
p501
I1
sS'@WORIDSTARHlPHOP:'
p502
I1
sS'@tymregnier'
p503
I1
sS'DONT'
p504
I2
sS'Luv'
p505
I2
sS'yeah'
p506
I4
sS'year'
p507
I3
sS'girl'
p508
I4
sS'Korean'
p509
I1
sS'album'
p510
I1
sS'Lmfao'
p511
I1
sS'timeline!'
p512
I1
sS'"NO'
p513
I1
sS'http://t.c\\u2026'
p514
I1
sS'internet'
p515
I2
sS'http://t.co/rRUDIzjMQu'
p516
I1
sS'hulk'
p517
I1
sS'Niall'
p518
I2
sS'besides'
p519
I1
sS'care'
p520
I1
sS'@WeLoveRobDyrdek:'
p521
I1
sS'bruv,'
p522
I1
sS'thing'
p523
I1
sS'think'
p524
I3
sS'first'
p525
I2
sS'http://t.co/YPyetqV2ml'
p526
I2
sS'http://t.co/2HY1eFmECd'
p527
I1
sS'There'
p528
I1
sS'one'
p529
I6
sS'@the1Dscene:'
p530
I1
sS'ring'
p531
I1
sS'little'
p532
I5
sS'checked'
p533
I1
sS'HOUR'
p534
I1
sS'done\\U0001f480\\U0001f480'
p535
I1
sS'anyone'
p536
I2
sS'@brownblaze:'
p537
I1
sS'@JmeBBK:'
p538
I1
sS'kn\\u2026'
p539
I1
sS'WORLD'
p540
I1
sS'white'
p541
I1
sS'friend'
p542
I4
sS'eyes'
p543
I1
sS'that'
p544
I21
sS'released'
p545
I1
sS'than'
p546
I5
sS'10'
p547
I1
sS'Love'
p548
I3
sS'yelping'
p549
I1
sS'gotta'
p550
I1
sS'@MyCheapJobss'
p551
I3
sS'https://t.co/QOgiI5cmAE'
p552
I1
sS'were'
p553
I2
sS'and'
p554
I23
sS'DO'
p555
I1
sS'@pickupIines:'
p556
I1
sS'einsbern.'
p557
I1
sS'Call'
p558
I1
sS'anger'
p559
I1
sS'saw'
p560
I1
sS'Do'
p561
I1
sS'Dj'
p562
I1
sS'sending'
p563
I1
sS'take'
p564
I1
sS'channel'
p565
I1
sS'@Steele_Stewart:'
p566
I1
sS'@TheFunnyVine:'
p567
I1
sS'yall!'
p568
I1
sS'#BuyDragMeDownOniTunes.'
p569
I1
sS'@austinshortreed'
p570
I1
sS'GOT'
p571
I3
sS'LIAM'
p572
I1
sS'forever'
p573
I1
sS'average'
p574
I1
sS'Fuck'
p575
I1
sS'\\u2708\\ufe0f\\U0001f1fa\\U0001f1f8'
p576
I1
sS'something,'
p577
I1
sS'not!'
p578
I1
sS'not"'
p579
I1
sS'Fifth'
p580
I1
sS'WE'
p581
I1
sS'#Sales'
p582
I1
sS'Sky'
p583
I1
sS'employer,'
p584
I1
sS'trespass'
p585
I1
sS'bedside'
p586
I1
sS'Role'
p587
I1
sS'contract.'
p588
I1
sS'We'
p589
I2
sS'tha\\u2026'
p590
I1
sS'http://t.co/\\u2026'
p591
I1
sS'only'
p592
I1
sS'going'
p593
I3
sS"bit..\\'\\'"
p594
I1
sS'PF'
p595
I1
sS'@TheLadyViola'
p596
I1
sS'get'
p597
I6
sS'Louis'
p598
I2
sS'$5'
p599
I1
sS'@connorjustus'
p600
I1
sS'http://t.co/rQjLtHSfYL'
p601
I1
sS'pumpfake'
p602
I1
sS'borrow'
p603
I1
sS'DONATED'
p604
I1
sS'GOES'
p605
I1
sS'friends!'
p606
I1
sS'where'
p607
I1
sS'http://t.co/tnFUoi4Fro'
p608
I1
sS'notice'
p609
I1
sS'wonder'
p610
I1
sS'#Camwebstarandviner'
p611
I1
sS'3'
p612
I5
sS'reading'
p613
I1
sS'across'
p614
I1
sS'cantaloupe'
p615
I1
sS'FOR'
p616
I1
sS'"YOU'
p617
I1
sS'U.S.'
p618
I2
sS'blame'
p619
I1
sS'honest.'
p620
I1
sS'trolling'
p621
I1
sS'come'
p622
I4
sS'http://t.co/QAynnSif3G'
p623
I1
sS'Give'
p624
I1
sS'fighters.'
p625
I1
sS'@Dbargen:'
p626
I1
sS'fashinonable'
p627
I1
sS'tour'
p628
I1
sS"can't"
p629
I3
sS'http://t.co/c0G1NHQlOP'
p630
I1
sS'#jobs'
p631
I1
sS'exploit'
p632
I1
sS'too!!\\u2026'
p633
I3
sS'@SQuirrel147'
p634
I1
sS'Entered'
p635
I1
sS'But'
p636
I3
sS'BETTER'
p637
I1
sS'peaceful'
p638
I1
sS'@queenchinaa19:'
p639
I1
sS'Princess'
p640
I1
sS'wants'
p641
I1
sS'shopping'
p642
I1
sS'@lustylouz'
p643
I1
sS'formed'
p644
I1
sS'e\\u2026'
p645
I1
sS'those'
p646
I2
sS'case'
p647
I1
sS'myself'
p648
I1
sS'50k'
p649
I3
sS'these'
p650
I2
sS'https://t.co/JWE3cDQ120'
p651
I1
sS'"OH'
p652
I1
sS'fil'
p653
I1
sS'situation'
p654
I1
sS'care.'
p655
I1
sS'art.'
p656
I1
sS'EYELASHES'
p657
I1
sS'@AndrArshavin23:'
p658
I1
sS'purse'
p659
I1
sS'DAD"'
p660
I1
sS'Looking'
p661
I1
sS'Wood'
p662
I1
sS'314-539-2200'
p663
I1
sS'@ReaIKentMurphy:'
p664
I1
sS'pay'
p665
I1
sS'$25'
p666
I2
sS'same'
p667
I5
sS'LOL..'
p668
I1
sS'food'
p669
I3
sS'followers'
p670
I1
sS'charge.'
p671
I1
sS'@WeddingCatcher:'
p672
I1
sS'70,000+'
p673
I2
sS'I'
p674
I85
sS'IS'
p675
I2
sS'seagulls'
p676
I1
sS'IT'
p677
I2
sS'cheers'
p678
I1
sS'fruit'
p679
I1
sS'IM'
p680
I3
sS'Is'
p681
I1
sS'without'
p682
I1
sS'Im'
p683
I1
sS'bottle'
p684
I1
sS'If'
p685
I2
sS'United'
p686
I1
sS"Miliband's"
p687
I1
sS'being'
p688
I5
sS'money'
p689
I1
sS'SHOUTING.'
p690
I1
sS"nights'"
p691
I1
sS'NAP'
p692
I1
sS'touch'
p693
I2
sS'@LarryUpdatesAcc:'
p694
I1
sS'http://t.co/ojX1ED51jq'
p695
I1
sS'Zach'
p696
I1
sS'thinking'
p697
I1
sS'nap'
p698
I1
sS'lets'
p699
I2
sS'espically'
p700
I1
sS'real'
p701
I1
sS'around'
p702
I1
sS'read'
p703
I2
sS'SAFE'
p704
I2
sS'&amp;&amp;'
p705
I1
sS'gonna'
p706
I1
sS'dark'
p707
I1
sS'117EX-00'
p708
I1
sS'@NiftyFollow:'
p709
I2
sS'mom'
p710
I2
sS'world'
p711
I3
sS'@tewanii'
p712
I1
sS'towel'
p713
I1
sS'woman"'
p714
I1
sS'\\u26be\\ufe0f'
p715
I1
sS'@MilitaryTweet:'
p716
I1
sS'apartments'
p717
I1
sS'out]'
p718
I1
sS'respect'
p719
I2
sS"he\\'s"
p720
I1
sS'stopp'
p721
I1
sS'legal'
p722
I1
sS'outtie'
p723
I1
sS'Extreme'
p724
I1
sS'http://t.co/ybkNAITeIT'
p725
I1
sS'@teenageharryy:'
p726
I1
sS'throw'
p727
I1
sS'on'
p728
I18
sS'stans'
p729
I1
sS'x31'
p730
I1
sS'oh'
p731
I2
sS'of'
p732
I10
sS'tumor'
p733
I1
sS"isn't"
p734
I1
sS'@grannywinkle:'
p735
I1
sS'backup'
p736
I1
sS'or'
p737
I3
sS'out.'
p738
I1
sS'No'
p739
I1
sS'burton'
p740
I1
sS'your'
p741
I9
sS"how's"
p742
I1
sS'prepare'
p743
I1
sS'NO'
p744
I1
sS'there'
p745
I4
sS'lol'
p746
I7
sS'reason...'
p747
I1
sS'@fourarrowsniall:'
p748
I1
sS'lot'
p749
I3
sS'pretends'
p750
I1
sS'you.'
p751
I4
sS'you,'
p752
I2
sS'Deanna,'
p753
I1
sS'@93slaurent:'
p754
I1
sS'you!'
p755
I2
sS'toooooo'
p756
I1
sS'gold\\u2764\\ufe0f\\u2728'
p757
I1
sS'trying'
p758
I2
sS'with'
p759
I18
sS"they're"
p760
I1
sS'@Delbud'
p761
I1
sS'http://t.co/rm2mNFy6oe'
p762
I1
sS'classes.'
p763
I1
sS'#cumshots'
p764
I1
sS'http://t.co/8sQRXFabmC'
p765
I1
sS'af'
p766
I1
sS'taste'
p767
I1
sS'am'
p768
I5
sS'deep'
p769
I1
sS'an'
p770
I2
sS'How'
p771
I1
sS'as'
p772
I4
sS'\\xbb'
p773
I2
sS'at'
p774
I12
sS'moves'
p775
I1
sS'@RapGenius:'
p776
I1
sS'hit'
p777
I1
sS'@BBYTHICC:'
p778
I1
sS'Read'
p779
I1
sS'deserve'
p780
I1
sS'5'
p781
I2
sS'you'
p782
I38
sS'sick.'
p783
I2
sS'@teenagersdiary:'
p784
I1
sS'\\U0001f648'
p785
I3
sS'#literacy'
p786
I1
sS'invest'
p787
I1
sS'Yeah'
p788
I1
sS'u'
p789
I8
sS'all'
p790
I10
sS'month'
p791
I2
sS'follow'
p792
I3
sS'liam'
p793
I1
sS'fuck..."'
p794
I1
sS'to'
p795
I42
sS'really?'
p796
I1
sS'@letus_dance'
p797
I1
sS'woman'
p798
I1
sS'tour"'
p799
I1
sS'very'
p800
I1
sS'fat'
p801
I1
sS'NOTH-ING'
p802
I1
sS"I'd"
p803
I2
sS'STOPPED'
p804
I1
sS"I'm"
p805
I18
sS'heaven'
p806
I1
sS"Don't"
p807
I2
sS'louis'
p808
I3
sS'small'
p809
I1
sS"I'M"
p810
I2
sS'PACK'
p811
I1
sS'past'
p812
I1
sS'what'
p813
I1
sS'http://t.co/E4wz9XGPJ9'
p814
I1
sS'sum'
p815
I1
sS'abs'
p816
I1
sS'him"'
p817
I1
sS'full'
p818
I1
sS'DIRECTIONERS'
p819
I1
sS'GiveAway'
p820
I1
sS'@MahoganyLOX:'
p821
I3
sS'@MindRecker69'
p822
I1
sS'@abscbndotcom:'
p823
I1
sS'allows'
p824
I1
sS'pick'
p825
I1
sS'via'
p826
I4
sS'Clarke'
p827
I1
sS'know"'
p828
I1
sS'Too'
p829
I1
sS'@okayxnarry:'
p830
I1
sS'@ThugLifeRhymes'
p831
I1
sS'@PSUBoomboxGuy'
p832
I1
sS'charge'
p833
I1
sS'EP'
p834
I2
sS'suck.'
p835
I1
sS'you...NOT!'
p836
I1
sS'Coming'
p837
I1
sS'more'
p838
I1
sS'microKorg'
p839
I1
sS'@addictofIwt:'
p840
I1
sS'2000+'
p841
I1
sS'http://t.co/MURaQSSWvq'
p842
I1
sS"ain't"
p843
I2
sS'stick'
p844
I1
sS'@CurtisBebro:'
p845
I1
sS'glad'
p846
I3
sS'\\U0001f609\\U0001f60f'
p847
I1
sS'sucks'
p848
I1
sS'-45,161'
p849
I1
sS'bron'
p850
I1
sS'SO'
p851
I3
sS'seagull'
p852
I1
sS'@aestheticblake'
p853
I1
sS'Hammock'
p854
I1
sS'Thompson'
p855
I1
sS'@writerly_dee'
p856
I1
sS'http://t.co/wM3\\u2026'
p857
I1
sS'Dude,'
p858
I1
sS'okay'
p859
I2
sS'tried'
p860
I1
sS'Glo'
p861
I1
sS'\\U0001f463,'
p862
I1
sS'coming'
p863
I1
sS'GLAD'
p864
I1
sS'a'
p865
I80
sS'short'
p866
I1
sS'media'
p867
I1
sS'dream'
p868
I1
sS"that's"
p869
I2
sS'@flauntingniall:'
p870
I1
sS'http://t.co/TNstJqyZv2'
p871
I1
sS'help'
p872
I2
sS"don't"
p873
I5
sS'@mslovelyyyy_'
p874
I1
sS'@Nashgrier:'
p875
I1
sS'hell'
p876
I2
sS'its'
p877
I1
sS'http://t.co/NCU8lEjirJ'
p878
I1
sS'talking'
p879
I2
sS'Full'
p880
I1
sS'@keloland:'
p881
I1
sS'@RelaxVibes:'
p882
I1
sS'LONG'
p883
I1
sS'EVERY'
p884
I1
sS'#OnePlus2GizmoGiveAway'
p885
I1
sS"haven't"
p886
I2
sS'it,'
p887
I2
sS'good'
p888
I4
sS'\\U0001f604\\U0001f44d\\U0001f3fc'
p889
I1
sS'yo'
p890
I1
sS'thinking.'
p891
I1
sS'ya'
p892
I1
sS'ye'
p893
I1
sS'it!'
p894
I4
sS'viewers'
p895
I1
sS'BECAUSE'
p896
I1
sS'pregnant'
p897
I1
sS'always'
p898
I2
sS'#Be\\u2026'
p899
I1
sS'eleanor'
p900
I1
sS'someone'
p901
I4
sS'it\\u2019s'
p902
I2
sS'found'
p903
I1
sS'BUMPS?!?'
p904
I1
sS'MEAN'
p905
I1
sS'Portugal?'
p906
I1
sS'"I\\\'m..'
p907
I1
sS'everyone'
p908
I2
sS'generation'
p909
I1
sS'house'
p910
I1
sS'hard'
p911
I4
sS'idea'
p912
I1
sS'atm.'
p913
I1
sS'beyond'
p914
I1
sS'really'
p915
I5
sS'lots\\U0001f49c'
p916
I1
sS'#hotgirls'
p917
I1
sS'Omg'
p918
I1
sS'missed'
p919
I1
sS'@Lowkey_oo:'
p920
I1
sS'since'
p921
I1
sS'bruh.'
p922
I1
sS'@WhyLarryIsReal:'
p923
I1
sS'7'
p924
I1
sS'ass'
p925
I1
sS'guess'
p926
I3
sS'@941Morgan'
p927
I1
sS'put'
p928
I1
sS'Shipping!'
p929
I1
sS'@probablylame:'
p930
I1
sS'Y\\u2026'
p931
I1
sS'#BelieveInMagicBall'
p932
I2
sS'shit\\u270c\\U0001f3fc\\ufe0f\\u270c\\U0001f3fc\\u270c\\U0001f3fc\\u270c\\U0001f3fc\\u270c\\U0001f3fc'
p933
I1
sS'5sos'
p934
I1
sS'dont'
p935
I2
sS'@WeLoveRobDyrdek'
p936
I1
sS'feel'
p937
I3
sS'done'
p938
I1
sS'miss'
p939
I5
sS'story'
p940
I3
sS'Mcc'
p941
I1
sS'least'
p942
I1
sS'property?'
p943
I1
sS'@anxietylmj:'
p944
I1
sS'Larry'
p945
I1
sS'passed'
p946
I1
sS'#DK4L'
p947
I1
sS'vision.'
p948
I1
sS'GTG'
p949
I1
sS'Fast'
p950
I2
sS'off'
p951
I1
sS'DIFFERENCE'
p952
I1
sS'grocery'
p953
I1
sS'#UnderstatementOfTheDay'
p954
I1
sS'gotten'
p955
I1
sS'@JmeBBK'
p956
I1
sS'nights'
p957
I1
sS'#KELO\\u2026'
p958
I1
sS'shulda'
p959
I1
sS'8:30-10:30'
p960
I1
sS'With'
p961
I1
sS'cavs'
p962
I1
sS'@Tommy_Delicious:'
p963
I1
sS'@twitter'
p964
I1
sS'VERY'
p965
I1
sS'that.'
p966
I1
sS'depths'
p967
I1
sS'fight,'
p968
I1
sS'plan'
p969
I1
sS'fight.'
p970
I1
sS'nothing'
p971
I2
sS'The'
p972
I4
sS'87.6'
p973
I1
sS'condom?'
p974
I1
sS'x103'
p975
I1
sS'@tayisaaa'
p976
I1
sS'#karma'
p977
I1
sS'fine'
p978
I1
sS'find'
p979
I1
sS'believe'
p980
I1
sS'@AdaptsTheGod'
p981
I1
sS'pretty'
p982
I2
sS'RETWEET'
p983
I1
sS'his'
p984
I4
sS'@1DsUniverse:'
p985
I1
sS'@vegasnewsnow'
p986
I1
sS'alive.'
p987
I1
sS'him'
p988
I2
sS'Saying'
p989
I1
sS'THIS'
p990
I2
sS'@ZozeeBo:'
p991
I1
sS'For'
p992
I1
sS'activists'
p993
I1
sS'see'
p994
I3
sS'WONDERFUL'
p995
I1
sS'are'
p996
I5
sS'close'
p997
I2
sS'retweet'
p998
I1
sS'knees'
p999
I1
sS'Pls'
p1000
I1
sS'movie'
p1001
I2
sS'wow'
p1002
I3
sS'please'
p1003
I1
sS'..\\U0001f476\\U0001f3fd'
p1004
I1
sS'probably'
p1005
I3
sS'AND'
p1006
I4
sS'both'
p1007
I1
sS'last'
p1008
I2
sS'Yea'
p1009
I1
sS"wouldn't"
p1010
I1
sS'sensitive'
p1011
I2
sS'Kris:'
p1012
I1
sS'whole'
p1013
I2
sS'Chie'
p1014
I1
sS'liked'
p1015
I4
sS'simple'
p1016
I2
sS'sweet'
p1017
I1
sS'http://t.co/YPCaXHPAeI'
p1018
I1
sS'church'
p1019
I1
sS'bitch.'
p1020
I1
sS'@jnkboy'
p1021
I1
sS'tristan.'
p1022
I1
sS'woke'
p1023
I1
sS'BALL'
p1024
I1
sS'HES'
p1025
I1
sS'@tourbusniaIl'
p1026
I1
sS'else'
p1027
I3
sS'lives'
p1028
I1
sS'demand'
p1029
I1
sS'look'
p1030
I1
sS'https://t.co/317ImUHYzu'
p1031
I3
sS'solid'
p1032
I1
sS'"do'
p1033
I1
sS'while'
p1034
I1
sS'swim'
p1035
I1
sS'YES,'
p1036
I1
sS'http://t.co/cqkiIrotPC'
p1037
I1
sS'STL'
p1038
I1
sS'voter?'
p1039
I1
sS'\\U0001f62d\\U0001f602'
p1040
I1
sS'YOU'
p1041
I3
sS'@YouTube'
p1042
I1
sS'@Louis_Tomlinson:'
p1043
I1
sS'anybody'
p1044
I2
sS'person'
p1045
I2
sS'"Harry'
p1046
I1
sS'@madiseIena:'
p1047
I1
sS'Permanent'
p1048
I1
sS"We're"
p1049
I1
sS'HAVE'
p1050
I3
sS'praying'
p1051
I1
sS'http://t.co/x0lZSCsXjH'
p1052
I2
sS'throats'
p1053
I1
sS'parents'
p1054
I1
sS'...'
p1055
I2
sS'big'
p1056
I2
sS'Air'
p1057
I1
sS'shitty'
p1058
I1
sS'game'
p1059
I4
sS'bit'
p1060
I2
sS'OF'
p1061
I3
sS'Robyn'
p1062
I1
sS'continue'
p1063
I1
sS'Finn'
p1064
I1
sS'parade'
p1065
I1
sS'http://t.co/MrWWVziKi2'
p1066
I1
sS'fucking'
p1067
I4
sS'some'
p1068
I3
sS'back'
p1069
I4
sS'curious'
p1070
I1
sS'LOUIS'
p1071
I1
sS'UP.'
p1072
I1
sS'savage'
p1073
I1
sS'Nothing'
p1074
I1
sS'@ADuke_0711:'
p1075
I1
sS'LEADER'
p1076
I1
sS'be'
p1077
I9
sS'bc'
p1078
I2
sS'Zach,'
p1079
I1
sS'by'
p1080
I3
sS'@__stuckOnLEXX'
p1081
I1
sS'anything'
p1082
I1
sS'deserves'
p1083
I1
sS'idk'
p1084
I1
sS'know..."Why'
p1085
I1
sS'wanna'
p1086
I5
sS'@carterreynolds:'
p1087
I1
sS'seeing'
p1088
I1
sS'#AaronCarpenter'
p1089
I1
sS'into'
p1090
I3
sS'within'
p1091
I1
sS'Their'
p1092
I1
sS'nigga'
p1093
I2
sS'hmm..'
p1094
I1
sS'..'
p1095
I1
sS'people."'
p1096
I1
sS'long'
p1097
I3
sS"we're"
p1098
I3
sS'CATCH'
p1099
I1
sS'@PretendRedhead'
p1100
I1
sS'boys'
p1101
I2
sS'NEED'
p1102
I2
sS'http://t.co/PrGZhu2ZDc'
p1103
I1
sS'posted'
p1104
I1
sS"I'll"
p1105
I4
sS'Twitter'
p1106
I3
sS'up'
p1107
I6
sS'us'
p1108
I3
sS'http://t.co/NBAq76K90D'
p1109
I1
sS'\\U0001f601'
p1110
I1
sS'row.'
p1111
I1
sS'NOT"'
p1112
I1
sS'fans?'
p1113
I1
sS'noe\\U0001f62d'
p1114
I1
sS'FUCKING'
p1115
I2
sS'peace'
p1116
I1
sS'TO'
p1117
I4
sS'TL'
p1118
I1
sS'tits'
p1119
I1
sS'LOL!!!'
p1120
I1
sS'smiles'
p1121
I1
sS'\\U0001f313\\U0001f30c\\U0001f30a'
p1122
I1
sS'AM'
p1123
I1
sS'lana'
p1124
I1
sS'gr8'
p1125
I1
sS'hella'
p1126
I2
sS'At'
p1127
I1
sS"she's"
p1128
I2
sS'Apparently'
p1129
I1
sS'having'
p1130
I1
sS'once'
p1131
I2
sS'ENERGIZED'
p1132
I1
sS'@DataPepple:'
p1133
I1
sS'happy"'
p1134
I1
sS'gang'
p1135
I1
sS'go'
p1136
I4
sS'gn'
p1137
I1
sS'@ayyeeeliam:'
p1138
I1
sS'young'
p1139
I1
sS'Now'
p1140
I1
sS'^-^'
p1141
I1
sS'wishes'
p1142
I1
sS'Karma,'
p1143
I1
sS'entire'
p1144
I1
sS'try'
p1145
I1
sS'ONLY'
p1146
I1
sS'havent'
p1147
I2
sS"you'd"
p1148
I1
sS'http:\\u2026'
p1149
I1
sS'Farmer'
p1150
I1
sS'Trespass?'
p1151
I1
sS'THATS'
p1152
I1
sS'WHAT'
p1153
I1
sS'#fml'
p1154
I1
sS'makes\\u2026'
p1155
I1
sS'@WesleyLowery'
p1156
I1
sS'let'
p1157
I1
sS'great'
p1158
I2
sS'talent'
p1159
I1
sS'Chinese'
p1160
I1
sS'"He'
p1161
I1
sS'Back'
p1162
I2
sS'leaving'
p1163
I1
sS'@SylarShang'
p1164
I1
sS'makes'
p1165
I2
sS'thats'
p1166
I1
sS'named'
p1167
I1
sS'@hvlfbreed:'
p1168
I1
sS'win'
p1169
I1
sS'KNOW'
p1170
I1
sS'already!!!'
p1171
I3
sS'http://t.co/tquVA7Nbcr'
p1172
I1
sS'from'
p1173
I3
sS'Korg'
p1174
I1
sS'"It\\\'s'
p1175
I1
sS'Basically'
p1176
I1
sS'\\U0001f604'
p1177
I1
sS'\\U0001f602'
p1178
I5
sS'deepest'
p1179
I1
sS'started'
p1180
I1
sS'sister'
p1181
I1
sS'@technickl:'
p1182
I1
sS'CANNOT'
p1183
I1
sS'baby'
p1184
I2
sS'st\\u2026'
p1185
I2
sS'women'
p1186
I1
sS'ALL'
p1187
I1
sS'LIKE'
p1188
I1
sS'this'
p1189
I11
sS'CUNT!"'
p1190
I1
sS'\\U0001f60d'
p1191
I4
sS'us,'
p1192
I1
sS'\\U0001f60c'
p1193
I2
sS'sitcoms...'
p1194
I1
sS'Louis\\U0001f602'
p1195
I1
sS'Police'
p1196
I1
sS'bent'
p1197
I1
sS'high'
p1198
I2
sS'https://t.co/qbvpUSPzv9'
p1199
I1
sS'wonderful'
p1200
I1
sS'HIS'
p1201
I1
sS'lame'
p1202
I1
sS'MOTHER'
p1203
I1
sS'@s_fowler16'
p1204
I1
sS'beeen'
p1205
I1
sS'await'
p1206
I1
sS'@BI_Sports'
p1207
I1
sS'Outdoor'
p1208
I1
sS'gone.'
p1209
I1
sS'light'
p1210
I1
sS'winner.'
p1211
I1
sS'One'
p1212
I1
sS'stamped'
p1213
I1
sS'Attempting'
p1214
I1
sS'masses'
p1215
I1
sS'http://t.co/HY4F2HVELR'
p1216
I1
sS'2015'
p1217
I2
sS'bye'
p1218
I1
sS'world.'
p1219
I1
sS'dad'
p1220
I3
sS'Solid'
p1221
I1
sS'dam'
p1222
I1
sS'mention'
p1223
I1
sS'Can'
p1224
I4
sS'front'
p1225
I1
sS'day'
p1226
I3
sS'http://t.co/aqDjPccq3s'
p1227
I1
sS'@TieganSmith3:'
p1228
I1
sS'LETS'
p1229
I1
sS'@etnaD_olegnaD:'
p1230
I1
sS'Synthesizer/Vocoder.'
p1231
I1
sS'Guys,'
p1232
I1
sS'From'
p1233
I1
sS'doing'
p1234
I2
sS'@babetexts:'
p1235
I1
sS'Harmony'
p1236
I1
sS'our'
p1237
I1
sS'HATE'
p1238
I1
sS'out'
p1239
I2
sS'Babe'
p1240
I1
sS"children's"
p1241
I1
sS'females,'
p1242
I1
sS'&gt;&gt;'
p1243
I1
sS'time.'
p1244
I1
sS'cause'
p1245
I1
sS'"Is'
p1246
I1
sS'http://t.co/qimxKkSL1V'
p1247
I1
sS'Swankster'
p1248
I2
sS'NYC.'
p1249
I1
sS'her'
p1250
I5
sS'could'
p1251
I4
sS'conversation'
p1252
I1
sS'night...'
p1253
I1
sS'Hanging'
p1254
I1
sS'IT.'
p1255
I1
sS'list.'
p1256
I1
sS'bitch'
p1257
I1
sS'such'
p1258
I1
sS'owner'
p1259
I1
sS"doesn't"
p1260
I1
sS'North'
p1261
I1
sS'@egyptizayn:'
p1262
I1
sS'start'
p1263
I1
sS'@maxt1234567'
p1264
I1
sS'love.'
p1265
I1
sS'their'
p1266
I2
sS'will/+'
p1267
I1
sS'enough.'
p1268
I1
sS'Wings'
p1269
I1
sS'"@tmhcurlshire:"no'
p1270
I1
sS'Ladies'
p1271
I1
sS'OMG'
p1272
I1
sS'loves'
p1273
I1
sS'embody'
p1274
I1
sS'tonight'
p1275
I2
sS'have'
p1276
I16
sS'need'
p1277
I3
sS'turn'
p1278
I1
sS'clearly'
p1279
I1
sS'lilo'
p1280
I2
sS'http://t.co/I2Fr\\u2026'
p1281
I2
sS'Spanks'
p1282
I1
sS'@WORIDSTARHIPH0P:'
p1283
I2
sS'#MTVHottest'
p1284
I2
sS'pitcher'
p1285
I1
sS'who'
p1286
I5
sS'Yeah,'
p1287
I1
sS'vengeance'
p1288
I1
sS'Detroit'
p1289
I1
sS'why'
p1290
I2
sS'it?"'
p1291
I1
sS'Shit'
p1292
I1
sS'Saturday'
p1293
I1
sS'text'
p1294
I1
sS'bring'
p1295
I2
sS'WANT'
p1296
I2
sS'rough'
p1297
I1
sS'BEST'
p1298
I1
sS'podcast'
p1299
I1
sS'('
p1300
I1
sS'http://t.co/UQEB7vFbIM'
p1301
I1
sS'true!'
p1302
I1
sS'should'
p1303
I3
sS'@kawaiigaythug'
p1304
I1
sS'http://t.co/c6kk5Hc0BT'
p1305
I1
sS'@feminine:'
p1306
I3
sS'local'
p1307
I1
sS'hope'
p1308
I2
sS'gonna..'
p1309
I1
sS'watching'
p1310
I1
sS'beat'
p1311
I1
sS'tbh'
p1312
I1
sS'sassy'
p1313
I2
sS'Because'
p1314
I1
sS'@map___'
p1315
I1
sS'aye,'
p1316
I1
sS'she'
p1317
I4
sS'anything?'
p1318
I1
sS'@devynwillows\\U0001f389\\u2764\\ufe0f'
p1319
I1
sS'http://t.co/JJm7xbj52J'
p1320
I1
sS"F\\'n"
p1321
I1
sS'LEAVE'
p1322
I1
sS'out\\U0001f602prepare'
p1323
I1
sS'omg'
p1324
I1
sS'butt!'
p1325
I1
sS'PS'
p1326
I1
sS'luv'
p1327
I1
sS'@SoReIatable:'
p1328
I1
sS'horrible'
p1329
I1
sS'Republican'
p1330
I1
sS'@SexualGif:'
p1331
I1
sS'ends'
p1332
I1
sS'butts'
p1333
I1
sS'joke'
p1334
I1
sS'https://t.co/8aDHials8G'
p1335
I1
sS'http://t.co/GxBpxE8hd7'
p1336
I1
sS'THEM'
p1337
I1
sS'Hey'
p1338
I1
sS'walk'
p1339
I1
sS'THEY'
p1340
I2
sS'cs'
p1341
I1
sS'table'
p1342
I1
sS'beach'
p1343
I2
sS'http://t.co/i3aKRv2rCh'
p1344
I1
sS'Lorry'
p1345
I1
sS"it's"
p1346
I5
sS'FAINTLY'
p1347
I1
sS'eraser'
p1348
I1
sS'waste'
p1349
I1
sS'http://t.co/mNPFBNeVpO'
p1350
I1
sS'that\\u2019s'
p1351
I3
sS'hmu'
p1352
I1
sS'Appreciate'
p1353
I1
sS'FREE'
p1354
I1
sS'Bruh.'
p1355
I1
sS'\\U0001f62d\\U0001f629\\U0001f602'
p1356
I1
sS'smartphones'
p1357
I1
sS'will'
p1358
I6
sS'will*'
p1359
I2
sS'hahaha'
p1360
I1
sS'LUCK'
p1361
I1
sS'Oluwababaskepta'
p1362
I1
sS'\\U0001f3b6\\u2708\\ufe0f'
p1363
I1
sS'swinging'
p1364
I1
sS'You'
p1365
I4
sS'Hope'
p1366
I1
sS')'
p1367
I1
sS'speaker'
p1368
I1
sS'\\U0001f629'
p1369
I1
sS'gets'
p1370
I1
sS'difficult'
p1371
I1
sS'WATCHING'
p1372
I1
sS'#Giveaway'
p1373
I1
sS'\\U0001f62a'
p1374
I1
sS'\\U0001f62d'
p1375
I1
sS'reflection'
p1376
I1
sS'i'
p1377
I11
sS'ALWAYS'
p1378
I1
sS'incredible'
p1379
I1
sS'well'
p1380
I1
sS'thought'
p1381
I3
sS'\\U0001f480'
p1382
I1
sS'realised'
p1383
I1
sS'BE'
p1384
I3
sS'taller'
p1385
I1
sS'#BernieSanders'
p1386
I1
sS'Goodnight,'
p1387
I1
sS'Be'
p1388
I1
sS'@mckryan'
p1389
I1
sS'realize'
p1390
I1
sS'reasons'
p1391
I1
sS'kick'
p1392
I1
sS'know'
p1393
I7
sS'moment,'
p1394
I1
sS'immediately'
p1395
I1
sS'http://t.co/KOsjNZevne'
p1396
I1
sS'Deluxe'
p1397
I1
sS'like'
p1398
I13
sS'lost'
p1399
I3
sS'@avonsbelIissima:'
p1400
I1
sS'admitted'
p1401
I1
sS'WISH'
p1402
I1
sS'chick'
p1403
I1
sS'THOSE'
p1404
I1
sS'likes'
p1405
I3
sS'because'
p1406
I2
sS'11,'
p1407
I1
sS'scared'
p1408
I1
sS"There's"
p1409
I1
sS'stuffs'
p1410
I1
sS'home'
p1411
I1
sS'#Alphabet'
p1412
I1
sS'@JoeBlak51:'
p1413
I1
sS'esp'
p1414
I1
sS'does'
p1415
I1
sS'THERE.'
p1416
I1
sS'Google.'
p1417
I1
sS'#VoteForCameron'
p1418
I1
sS'@NotableFollow:'
p1419
I1
sS'&amp;'
p1420
I7
sS'vs.'
p1421
I1
sS'about'
p1422
I7
sS'"you'
p1423
I1
sS'http://t.co\\u2026'
p1424
I1
sS'!!'
p1425
I1
sS'own'
p1426
I3
sS'STOP'
p1427
I1
sS'250lb'
p1428
I1
sS'support'
p1429
I1
sS'cavite\\U0001f602'
p1430
I1
sS'biggest'
p1431
I1
sS'@Harry_Styles'
p1432
I1
sS'but'
p1433
I6
sS'FEW'
p1434
I1
sS'life..'
p1435
I1
sS'he'
p1436
I7
sS'made'
p1437
I3
sS'mixtapes'
p1438
I1
sS'wish'
p1439
I2
sS'signed'
p1440
I1
sS'this.'
p1441
I1
sS'\\u2026'
p1442
I1
sS'periods'
p1443
I1
sS'daves Metadata'
p1444
I200
sS"don\\'t"
p1445
I1
sS'hazelnuts'
p1446
I1
sS'offensive'
p1447
I1
sS'BREATHEEEEEE'
p1448
I1
sS'DAY'
p1449
I1
sS'again.'
p1450
I1
sS'stay'
p1451
I2
sS'upset.'
p1452
I1
sS'VOTE'
p1453
I1
sS'death.'
p1454
I1
sS'friends'
p1455
I4
sS'#RLKids'
p1456
I1
sS'http://t.co/Er4Xthfe5d"'
p1457
I1
sS'compete'
p1458
I1
s.