(dp0
S'\\u2026..'
p1
(lp2
I77
asS'liam'
p3
(lp4
I76
asS'relationships'
p5
(lp6
I2
asS'father'
p7
(lp8
I71
asS'finally'
p9
(lp10
I39
asS'really?'
p11
(lp12
I13
asS'\\U0001f602\\U0001f602\\U0001f602'
p13
(lp14
I5
asS'sorry'
p15
(lp16
I80
asS'very'
p17
(lp18
I19
asS'movie??'
p19
(lp20
I0
asS'wishes'
p21
(lp22
I35
asS"I'm"
p23
(lp24
I21
asS'lots\\U0001f49c'
p25
(lp26
I7
asS'school'
p27
(lp28
I90
asS'turns'
p29
(lp30
I19
asS'http://t.co/VdlxCUkqku'
p31
(lp32
I10
asS'small'
p33
(lp34
I75
asS'loads'
p35
(lp36
I40
asS'mo'
p37
(lp38
I85
asS'yall'
p39
(lp40
I54
aI65
aI91
asS'talked'
p41
(lp42
I84
asS'dealing'
p43
(lp44
I70
asS'me)'
p45
(lp46
I28
aI53
asS'OnePlus2'
p47
(lp48
I11
asS'second'
p49
(lp50
I19
asS'street'
p51
(lp52
I94
asS'Shocker'
p53
(lp54
I45
asS'me?'
p55
(lp56
I7
asS'sum'
p57
(lp58
I85
asS'goes'
p59
(lp60
I76
asS'supporting'
p61
(lp62
I80
asS'makes\\u2026'
p63
(lp64
I99
asS'GiveAway'
p65
(lp66
I11
asS'sending'
p67
(lp68
I62
asS'Chinese'
p69
(lp70
I82
asS'k'
p71
(lp72
I24
asS'@SylarShang'
p73
(lp74
I12
asS'Dear'
p75
(lp76
I27
asS"i'm"
p77
(lp78
I25
asS'named'
p79
(lp80
I15
asS'love'
p81
(lp82
I34
aI66
asS'@941Morgan'
p83
(lp84
I61
asS'extra'
p85
(lp86
I3
asS'@Louis_Tomlinson'
p87
(lp88
I40
asS'Too'
p89
(lp90
I11
asS'beer?'
p91
(lp92
I22
asS'Specialist'
p93
(lp94
I10
asS'aye'
p95
(lp96
I36
asS'hospital'
p97
(lp98
I71
asS'Coming'
p99
(lp100
I45
asS'WHY'
p101
(lp102
I64
asS'today'
p103
(lp104
I60
asS'glass'
p105
(lp106
I15
asS'CANNOT'
p107
(lp108
I41
asS'\\U0001f609\\U0001f60f'
p109
(lp110
I32
asS'\\U0001f60d'
p111
(lp112
I30
asS'work'
p113
(lp114
I23
asS'sucks'
p115
(lp116
I88
asS'soul'
p117
(lp118
I79
asS'del'
p119
(lp120
I79
asS'sitcoms...'
p121
(lp122
I14
asS'swinging'
p123
(lp124
I49
asS'https://t.co/qbvpUSPzv9'
p125
(lp126
I41
asS'@writerly_dee'
p127
(lp128
I12
asS'VOTING,'
p129
(lp130
I98
asS'http://t.co/yMnMpnX0mc'
p131
(lp132
I11
asS'lame'
p133
(lp134
I58
asS'http://t.co/XBwAWBw79r'
p135
(lp136
I93
asS'how'
p137
(lp138
I55
asS'resignation'
p139
(lp140
I86
asS'tried'
p141
(lp142
I52
asS'http://t.co/rRUDIzjMQu'
p143
(lp144
I78
asS'@_tarin11:'
p145
(lp146
I86
asS'such'
p147
(lp148
I76
asS'xception'
p149
(lp150
I48
aI51
aI56
aI63
asS'a'
p151
(lp152
I8
asS'light'
p153
(lp154
I19
asS'One'
p155
(lp156
I60
asS'switch'
p157
(lp158
I15
asS'so'
p159
(lp160
I66
asS'keeps'
p161
(lp162
I92
asS'dream'
p163
(lp164
I14
asS'cute'
p165
(lp166
I2
asS'stamped'
p167
(lp168
I32
asS'microKorg'
p169
(lp170
I72
asS'outshine'
p171
(lp172
I81
asS'@Nashgrier:'
p173
(lp174
I20
asS'shake'
p175
(lp176
I4
asS'still'
p177
(lp178
I52
asS'followers'
p179
(lp180
I36
asS'weeks'
p181
(lp182
I33
asS'fil'
p183
(lp184
I4
asS'dad'
p185
(lp186
I22
asS'then'
p187
(lp188
I36
asS'\\U0001f604\\U0001f44d\\U0001f3fc'
p189
(lp190
I12
asS'views'
p191
(lp192
I54
aI65
aI91
asS'ye'
p193
(lp194
I74
asS'mention'
p195
(lp196
I0
asS"Miliband's"
p197
(lp198
I86
asS'front'
p199
(lp200
I16
asS'realize'
p201
(lp202
I39
asS'espically'
p203
(lp204
I62
asS'WISH'
p205
(lp206
I31
asS'drop'
p207
(lp208
I83
asS'e\\u2026'
p209
(lp210
I1
asS'week;'
p211
(lp212
I71
asS'earlier...'
p213
(lp214
I47
asS'victory'
p215
(lp216
I81
asS'louis'
p217
(lp218
I66
asS"isn't"
p219
(lp220
I68
asS'@grannywinkle:'
p221
(lp222
I34
asS'generation'
p223
(lp224
I16
asS'house'
p225
(lp226
I15
asS'@babetexts:'
p227
(lp228
I70
asS'owner'
p229
(lp230
I46
asS'Harmony'
p231
(lp232
I42
asS'our'
p233
(lp234
I16
asS'album'
p235
(lp236
I9
asS'Omg'
p237
(lp238
I50
asS'since'
p239
(lp240
I58
asS'@WhyLarryIsReal:'
p241
(lp242
I8
asS'time.'
p243
(lp244
I89
asS'got'
p245
(lp246
I61
asS'rn'
p247
(lp248
I83
asS'singleeeeee'
p249
(lp250
I32
asS'put'
p251
(lp252
I49
asS'Shipping!'
p253
(lp254
I72
asS'soundcloud'
p255
(lp256
I6
asS'care'
p257
(lp258
I99
asS'September'
p259
(lp260
I67
asS'bruv,'
p261
(lp262
I73
asS'think'
p263
(lp264
I67
asS'http://t.co/YPyetqV2ml'
p265
(lp266
I17
aI18
asS'http://t.co/2HY1eFmECd'
p267
(lp268
I87
asS'http://t.co/NCU8lEjirJ'
p269
(lp270
I82
asS'@WeLoveRobDyrdek'
p271
(lp272
I21
asS'done'
p273
(lp274
I60
asS'bitch'
p275
(lp276
I50
asS'@the1Dscene:'
p277
(lp278
I44
asS'ring'
p279
(lp280
I26
asS'miss'
p281
(lp282
I55
aI59
asS'North'
p283
(lp284
I10
asS'service'
p285
(lp286
I68
asS'done\\U0001f480\\U0001f480'
p287
(lp288
I21
asS'love.'
p289
(lp290
I94
asS'property?'
p291
(lp292
I46
asS'@anxietylmj:'
p293
(lp294
I42
asS'wonderful'
p295
(lp296
I7
asS'enough.'
p297
(lp298
I68
asS'WORLD'
p299
(lp300
I31
asS'white'
p301
(lp302
I29
asS'wasted'
p303
(lp304
I88
asS'YALL'
p305
(lp306
I41
asS'yelping'
p307
(lp308
I75
asS'dog?'
p309
(lp310
I75
asS'WONDERFUL'
p311
(lp312
I31
asS'embody'
p313
(lp314
I79
asS'feeling'
p315
(lp316
I47
asS'and'
p317
(lp318
I59
asS'fashion'
p319
(lp320
I80
asS'mind'
p321
(lp322
I20
asS'SUCH'
p323
(lp324
I64
asS'need'
p325
(lp326
I30
asS'clearly'
p327
(lp328
I99
asS'thought'
p329
(lp330
I13
asS'do.'
p331
(lp332
I39
asS'pics,'
p333
(lp334
I62
asS'http://t.co/I2Fr\\u2026'
p335
(lp336
I17
aI18
asS'walk'
p337
(lp338
I93
asS'Spanks'
p339
(lp340
I95
asS'With'
p341
(lp342
I22
asS'though'
p343
(lp344
I84
asS'mouth'
p345
(lp346
I28
aI53
asS'Ivan'
p347
(lp348
I59
asS'gold\\u2764\\ufe0f\\u2728'
p349
(lp350
I40
asS'forever'
p351
(lp352
I70
asS'hungry'
p353
(lp354
I25
asS'not!'
p355
(lp356
I57
asS'Fifth'
p357
(lp358
I42
asS'WE'
p359
(lp360
I98
asS'show'
p361
(lp362
I80
asS'text'
p363
(lp364
I2
asS'employer,'
p365
(lp366
I52
asS'trespass'
p367
(lp368
I46
asS'rough'
p369
(lp370
I52
asS'fine'
p371
(lp372
I20
asS'buss'
p373
(lp374
I5
asS'explain'
p375
(lp376
I42
asS'tha\\u2026'
p377
(lp378
I88
asS'http://t.co/c6kk5Hc0BT'
p379
(lp380
I9
asS'photo'
p381
(lp382
I87
asS'folks'
p383
(lp384
I77
asS'pretends'
p385
(lp386
I99
asS'personality'
p387
(lp388
I97
asS'hit'
p389
(lp390
I50
asS'watching'
p391
(lp392
I14
asS'watch'
p393
(lp394
I0
asS'shirts.'
p395
(lp396
I94
asS'@connorjustus'
p397
(lp398
I21
asS'sassy'
p399
(lp400
I28
aI53
asS'Saying'
p401
(lp402
I43
asS'@map___'
p403
(lp404
I13
asS'pumpfake'
p405
(lp406
I50
asS'borrow'
p407
(lp408
I38
asS'where'
p409
(lp410
I33
asS'out\\U0001f602prepare'
p411
(lp412
I73
asS'close'
p413
(lp414
I78
asS'@_thuggedOut:'
p415
(lp416
I61
asS'butt!'
p417
(lp418
I27
asS'wonder'
p419
(lp420
I6
asS'luv'
p421
(lp422
I95
asS'movie'
p423
(lp424
I13
asS'wow'
p425
(lp426
I54
aI65
aI91
asS"there's"
p427
(lp428
I97
asS'@SoReIatable:'
p429
(lp430
I30
asS'mum'
p431
(lp432
I74
asS'[Mixtape]'
p433
(lp434
I69
aI96
asS'Republican'
p435
(lp436
I57
asS'cantaloupe'
p437
(lp438
I77
asS'omg'
p439
(lp440
I3
asS'butts'
p441
(lp442
I95
asS'http://t.co/QAynnSif3G'
p443
(lp444
I34
asS'https://t.co/JWE3cDQ120'
p445
(lp446
I37
asS'joke'
p447
(lp448
I82
asS'sensitive'
p449
(lp450
I28
aI53
asS'http://t.co/GxBpxE8hd7'
p451
(lp452
I1
asS'eyesight'
p453
(lp454
I35
asS'http://t.co/c0G1NHQlOP'
p455
(lp456
I10
asS'simple'
p457
(lp458
I20
asS'sweet'
p459
(lp460
I77
asS'condescending'
p461
(lp462
I57
asS'too!!\\u2026'
p463
(lp464
I54
aI65
aI91
asS'http://t.co/YPCaXHPAeI'
p465
(lp466
I45
asS'now,'
p467
(lp468
I60
asS'asks'
p469
(lp470
I25
asS'much'
p471
(lp472
I66
asS'peaceful'
p473
(lp474
I90
asS'waste'
p475
(lp476
I89
asS'http://t.co/mNPFBNeVpO'
p477
(lp478
I1
asS'woke'
p479
(lp480
I24
asS'wants'
p481
(lp482
I33
asS'drugs'
p483
(lp484
I74
asS'hmu'
p485
(lp486
I39
asS'\\U0001f60a\\U0001f60a\\U0001f60a\\U0001f60a\\U0001f60a\\U0001f60a\\U0001f60a\\U0001f60a\\U0001f60a\\U0001f60a\\U0001f60a\\U0001f60a\\U0001f60a\\U0001f60a\\U0001f60a\\U0001f60a\\U0001f60a\\U0001f60a\\U0001f60a\\U0001f60a\\U0001f60a\\U0001f60a\\U0001f60a'
p487
(lp488
I2
asS'chill'
p489
(lp490
I83
asS'case'
p491
(lp492
I5
asS'straight'
p493
(lp494
I49
asS'while'
p495
(lp496
I83
asS'will*'
p497
(lp498
I17
aI18
asS"haven't"
p499
(lp500
I78
asS'http://t\\u2026'
p501
(lp502
I31
asS'care.'
p503
(lp504
I68
asS'-Mari'
p505
(lp506
I44
asS'\\U0001f3b6\\u2708\\ufe0f'
p507
(lp508
I34
asS'Wood'
p509
(lp510
I1
asS'LOT'
p511
(lp512
I64
asS'media'
p513
(lp514
I81
asS'speaker'
p515
(lp516
I38
asS'http://t.co/7Ft59RmQjs'
p517
(lp518
I25
asS'difficult'
p519
(lp520
I3
asS'Maybe'
p521
(lp522
I67
asS'voter?'
p523
(lp524
I57
asS'\\U0001f62d\\U0001f602'
p525
(lp526
I37
asS'hand'
p527
(lp528
I92
asS'\\U0001f62d'
p529
(lp530
I4
asS'Anxiety,'
p531
(lp532
I27
asS'ALWAYS'
p533
(lp534
I47
asS'Is'
p535
(lp536
I45
asS'youre'
p537
(lp538
I37
asS'well'
p539
(lp540
I29
asS'anybody'
p541
(lp542
I38
asS'tho'
p543
(lp544
I23
asS'Im'
p545
(lp546
I89
asS'milli!'
p547
(lp548
I9
asS'@omggamelia'
p549
(lp550
I36
asS'yea'
p551
(lp552
I23
asS'money'
p553
(lp554
I67
asS"nights'"
p555
(lp556
I14
asS'NAP'
p557
(lp558
I24
asS'Goodnight,'
p559
(lp560
I40
asS'touch'
p561
(lp562
I84
asS'yet'
p563
(lp564
I6
asS'http://t.co/x0lZSCsXjH'
p565
(lp566
I69
aI96
asS'parents'
p567
(lp568
I58
asS'kick'
p569
(lp570
I27
asS'@_mewisebook'
p571
(lp572
I95
asS'dumb?!'
p573
(lp574
I47
asS'SAFE'
p575
(lp576
I17
aI18
asS'gonna'
p577
(lp578
I73
asS'shitty'
p579
(lp580
I29
asS'http://t.co/KOsjNZevne'
p581
(lp582
I74
asS'@tewanii'
p583
(lp584
I23
asS'@imzsworld'
p585
(lp586
I0
asS'Robyn'
p587
(lp588
I61
asS'continue'
p589
(lp590
I90
asS'night'
p591
(lp592
I93
asS'chick'
p593
(lp594
I4
asS'Prince'
p595
(lp596
I8
asS'THOSE'
p597
(lp598
I64
asS'http://t.co/lfttqbBn93'
p599
(lp600
I44
asS'right'
p601
(lp602
I43
asS'old'
p603
(lp604
I97
aI97
asS'scared'
p605
(lp606
I49
asS"There's"
p607
(lp608
I82
asS'esp'
p609
(lp610
I58
asS's\\u2026'
p611
(lp612
I35
asS'stopp'
p613
(lp614
I62
asS'does'
p615
(lp616
I38
asS'Facebook'
p617
(lp618
I87
asS'http://t.co/VSlGJFjv1j'
p619
(lp620
I72
asS'@__stuckOnLEXX'
p621
(lp622
I69
asS'sister'
p623
(lp624
I3
asS'anything'
p625
(lp626
I75
asS'tumor'
p627
(lp628
I35
asS'know..."Why'
p629
(lp630
I26
asS'Synthesizer/Vocoder.'
p631
(lp632
I72
asS'@carterreynolds:'
p633
(lp634
I55
asS'seeing'
p635
(lp636
I16
asS'presence'
p637
(lp638
I46
asS'@austinshortreed'
p639
(lp640
I96
asS".....it's"
p641
(lp642
I32
asS'WAY.'
p643
(lp644
I98
asS'Martha'
p645
(lp646
I37
asS"how's"
p647
(lp648
I7
asS'@BestVinesEver:'
p649
(lp650
I78
asS'support'
p651
(lp652
I76
asS'cavite\\U0001f602'
p653
(lp654
I73
asS'start'
p655
(lp656
I33
asS'happy'
p657
(lp658
I55
asS'what?'
p659
(lp660
I22
asS'Deanna,'
p661
(lp662
I12
asS'so.'
p663
(lp664
I9
asS'it?"'
p665
(lp666
I26
asS'podcast'
p667
(lp668
I29
asS'life..'
p669
(lp670
I88
asS'posted'
p671
(lp672
I87
asS'@Delbud'
p673
(lp674
I43
asS'mixtapes'
p675
(lp676
I6
asS'http://t.co/NBAq76K90D'
p677
(lp678
I30
asS'emotional'
p679
(lp680
I86
asS'row.'
p681
(lp682
I85
asS'http://t.co/8sQRXFabmC'
p683
(lp684
I8
asS'taste'
p685
(lp686
I94
asS'\\xbb'
p687
(lp688
I69
aI96
asS'noe\\U0001f62d'
p689
(lp690
I59
asS'annoying'
p691
(lp692
I70
asS"don\\'t"
p693
(lp694
I26
asS'hazelnuts'
p695
(lp696
I43
asS'BREATHEEEEEE'
p697
(lp698
I41
asS'nap'
p699
(lp700
I24
asS'5'
p701
(lp702
I85
asS'holding'
p703
(lp704
I92
asS'today...'
p705
(lp706
I90
asS'smiles'
p707
(lp708
I92
asS'\\U0001f313\\U0001f30c\\U0001f30a'
p709
(lp710
I93
asS'stay'
p711
(lp712
I84
asS'upset.'
p713
(lp714
I44
asS'VOTE'
p715
(lp716
I98
asS'death.'
p717
(lp718
I81
asS'died'
p719
(lp720
I71
asS'lana'
p721
(lp722
I79
asS'http://t.co/J6s9lvnKRl'
p723
(lp724
I5
asS'compete'
p725
(lp726
I89
as.