(dp0
S'fuck..."'
p1
(lp2
I9
asS'tweet'
p3
(lp4
I68
asS'sweetest'
p5
(lp6
I66
asS'young'
p7
(lp8
I14
asS'MUCH'
p9
(lp10
I73
asS'@letus_dance'
p11
(lp12
I86
asS'woman'
p13
(lp14
I9
asS'tour"'
p15
(lp16
I58
asS'fat'
p17
(lp18
I16
asS'@camerondallas'
p19
(lp20
I19
asS'outtie'
p21
(lp22
I6
asS'STOPPED'
p23
(lp24
I32
asS"I'm"
p25
(lp26
I56
asS'entire'
p27
(lp28
I66
asS"Don't"
p29
(lp30
I28
asS'brother'
p31
(lp32
I0
asS'try'
p33
(lp34
I45
asS'ONLY'
p35
(lp36
I37
asS'\\U0001f49c'
p37
(lp38
I19
asS'Vita'
p39
(lp40
I81
asS'talked'
p41
(lp42
I41
asS'says'
p43
(lp44
I55
asS'regret'
p45
(lp46
I43
asS'sign'
p47
(lp48
I72
asS'past'
p49
(lp50
I59
asS'what'
p51
(lp52
I1
asS'http://t.co/E4wz9XGPJ9'
p53
(lp54
I90
asS'PAINTED'
p55
(lp56
I40
asS'Skepta'
p57
(lp58
I0
asS'abs'
p59
(lp60
I4
asS'right\\u2764'
p61
(lp62
I76
asS'new'
p63
(lp64
I98
asS'him"'
p65
(lp66
I29
asS'Me'
p67
(lp68
I84
asS"haters,I'm"
p69
(lp70
I96
asS'makeup'
p71
(lp72
I49
asS'water'
p73
(lp74
I97
asS'http://t.co/BKNuwZ26Ne'
p75
(lp76
I99
asS'let'
p77
(lp78
I38
asS'Follow'
p79
(lp80
I49
asS'wait'
p81
(lp82
I57
asS'talent'
p83
(lp84
I82
asS'reborn.'
p85
(lp86
I85
asS'leaving'
p87
(lp88
I99
asS'pick'
p89
(lp90
I95
asS"i'm"
p91
(lp92
I16
asS'NOW'
p93
(lp94
I37
asS'MY'
p95
(lp96
I73
asS'thats'
p97
(lp98
I10
asS'REAL'
p99
(lp100
I24
asS'love'
p101
(lp102
I30
asS'win'
p103
(lp104
I49
asS'know"'
p105
(lp106
I38
asS'@Chief_Keesh:'
p107
(lp108
I61
asS'http://t.co/tquVA7Nbcr'
p109
(lp110
I34
asS'from'
p111
(lp112
I61
asS'working'
p113
(lp114
I7
asS'http://t.co/dI9tMCYw0n'
p115
(lp116
I40
asS'suck.'
p117
(lp118
I12
asS'you...NOT!'
p119
(lp120
I39
asS'right,'
p121
(lp122
I17
asS'\\U0001f602'
p123
(lp124
I21
asS'more'
p125
(lp126
I34
asS'started'
p127
(lp128
I31
asS"wouldn\\'t"
p129
(lp130
I5
aI5
asS'Monday,'
p131
(lp132
I39
asS'haha'
p133
(lp134
I25
asS'http://t.co/MURaQSSWvq'
p135
(lp136
I38
asS'stick'
p137
(lp138
I36
asS'hold'
p139
(lp140
I70
asS'women'
p141
(lp142
I5
asS'us,'
p143
(lp144
I82
asS'can'
p145
(lp146
I4
asS'seagull'
p147
(lp148
I13
asS'Louis\\U0001f602'
p149
(lp150
I99
asS'bent'
p151
(lp152
I64
asS'http://t.co/oVVNIKo6PL'
p153
(lp154
I36
asS'http://t.co/wM3\\u2026'
p155
(lp156
I24
asS'end'
p157
(lp158
I43
asS'turn'
p159
(lp160
I65
asS'MOTHER'
p161
(lp162
I73
asS'kebabs'
p163
(lp164
I4
asS'@s_fowler16'
p165
(lp166
I51
asS'cosign'
p167
(lp168
I91
asS'WHAT'
p169
(lp170
I2
asS'max'
p171
(lp172
I1
asS'\\U0001f463,'
p173
(lp174
I91
asS'birthday'
p175
(lp176
I33
asS'@Flusche'
p177
(lp178
I77
asS'xception'
p179
(lp180
I48
aI50
aI53
aI62
asS'YOU.'
p181
(lp182
I44
asS'All'
p183
(lp184
I61
asS'short'
p185
(lp186
I75
asS'@ClaudiaVincen10'
p187
(lp188
I51
asS'winner.'
p189
(lp190
I78
asS'giveaway.'
p191
(lp192
I78
asS'fan'
p193
(lp194
I72
asS'talk'
p195
(lp196
I11
aI95
asS'@velopaso'
p197
(lp198
I77
asS'http://t.co/TNstJqyZv2'
p199
(lp200
I3
asS'@NiggaNarration:'
p201
(lp202
I47
asS'masses'
p203
(lp204
I27
asS'did.'
p205
(lp206
I78
asS'better'
p207
(lp208
I22
asS'http://t.co/HY4F2HVELR'
p209
(lp210
I32
asS'world.'
p211
(lp212
I85
asS'https://t.co/mEoOWgdGPH'
p213
(lp214
I21
asS"haven't"
p215
(lp216
I35
asS'good'
p217
(lp218
I18
asS'yo'
p219
(lp220
I46
asS'thinking.'
p221
(lp222
I1
asS'ya'
p223
(lp224
I18
asS'dam'
p225
(lp226
I87
asS'kids"'
p227
(lp228
I29
asS'viewers'
p229
(lp230
I59
asS'MYSELF'
p231
(lp232
I37
asS'pregnant'
p233
(lp234
I12
asS'http://t.co/aqDjPccq3s'
p235
(lp236
I33
asS'@tymregnier'
p237
(lp238
I15
asS'BUMPS?!?'
p239
(lp240
I77
asS'mean'
p241
(lp242
I13
asS'toooooo'
p243
(lp244
I70
asS'thing'
p245
(lp246
I7
asS'out'
p247
(lp248
I11
aI26
asS'missed'
p249
(lp250
I26
asS'Favourite'
p251
(lp252
I72
asS'timeline!'
p253
(lp254
I79
asS'http://t.c\\u2026'
p255
(lp256
I2
asS'"Is'
p257
(lp258
I58
asS'https://t.co/eLz9QPzWwh'
p259
(lp260
I8
asS'http://t.co/qimxKkSL1V'
p261
(lp262
I46
asS'@probablylame:'
p263
(lp264
I95
asS'@WeLoveRobDyrdek:'
p265
(lp266
I21
asS'@Ford'
p267
(lp268
I67
asS'conversation'
p269
(lp270
I8
asS'shit\\u270c\\U0001f3fc\\ufe0f\\u270c\\U0001f3fc\\u270c\\U0001f3fc\\u270c\\U0001f3fc\\u270c\\U0001f3fc'
p271
(lp272
I96
asS'night...'
p273
(lp274
I68
asS'girls'
p275
(lp276
I58
asS'list.'
p277
(lp278
I60
asS'sounds'
p279
(lp280
I76
asS"you'd"
p281
(lp282
I63
asS"doesn't"
p283
(lp284
I43
asS'toy'
p285
(lp286
I92
asS'checked'
p287
(lp288
I67
asS'@egyptizayn:'
p289
(lp290
I32
asS'needed'
p291
(lp292
I91
asS'Mcc'
p293
(lp294
I52
asS'least'
p295
(lp296
I69
asS'w/'
p297
(lp298
I88
asS'SEE'
p299
(lp300
I54
asS'will/+'
p301
(lp302
I24
asS'too'
p303
(lp304
I96
asS'passed'
p305
(lp306
I71
asS'kn\\u2026'
p307
(lp308
I55
asS'Wings'
p309
(lp310
I3
asS'vision.'
p311
(lp312
I85
asS'released'
p313
(lp314
I89
asS'DIFFERENCE'
p315
(lp316
I54
asS'grocery'
p317
(lp318
I46
asS'OMG'
p319
(lp320
I37
asS'sycamore'
p321
(lp322
I97
asS'https://t.co/QOgiI5cmAE'
p323
(lp324
I83
asS'loves'
p325
(lp326
I74
asS'Unip'
p327
(lp328
I56
asS'@pickupIines:'
p329
(lp330
I63
asS'anger'
p331
(lp332
I70
asS'saw'
p333
(lp334
I13
asS'Do'
p335
(lp336
I0
asS'take'
p337
(lp338
I87
asS'@Tommy_Delicious:'
p339
(lp340
I15
asS'@WORIDSTARHIPH0P:'
p341
(lp342
I83
asS'though'
p343
(lp344
I41
asS'VERY'
p345
(lp346
I2
asS'yall!'
p347
(lp348
I51
asS'that.'
p349
(lp350
I17
asS'depths'
p351
(lp352
I42
asS'vengeance'
p353
(lp354
I47
asS'why'
p355
(lp356
I4
asS'Fuck'
p357
(lp358
I96
asS'leukemia.'
p359
(lp360
I71
asS'something,'
p361
(lp362
I23
asS'not"'
p363
(lp364
I55
asS'came'
p365
(lp366
I78
asS'saying'
p367
(lp368
I12
asS'x103'
p369
(lp370
I19
asS'player.'
p371
(lp372
I22
asS'bring'
p373
(lp374
I94
asS'cannot.'
p375
(lp376
I52
asS'find'
p377
(lp378
I11
asS'Teaser:'
p379
(lp380
I3
asS'http://t.co/iK8z4s2YAj'
p381
(lp382
I47
asS'believe'
p383
(lp384
I20
asS'http://t.co/UQEB7vFbIM'
p385
(lp386
I52
asS'true!'
p387
(lp388
I75
asS'Fred'
p389
(lp390
I60
asS'@kawaiigaythug'
p391
(lp392
I81
asS'only'
p393
(lp394
I36
asS'ht\\u2026'
p395
(lp396
I7
asS'deepest'
p397
(lp398
I42
asS'local'
p399
(lp400
I67
asS'hope'
p401
(lp402
I33
asS'tbh'
p403
(lp404
I45
asS'http://t.co/rQjLtHSfYL'
p405
(lp406
I54
asS'Because'
p407
(lp408
I26
asS'ever'
p409
(lp410
I23
asS'bad'
p411
(lp412
I65
asS'https://t\\u2026'
p413
(lp414
I89
asS'http://t.co/tnFUoi4Fro'
p415
(lp416
I24
asS'Jackson'
p417
(lp418
I60
asS'@devynwillows\\U0001f389\\u2764\\ufe0f'
p419
(lp420
I33
asS'close'
p421
(lp422
I35
asS'retweet'
p423
(lp424
I72
asS'PS'
p425
(lp426
I81
asS'said'
p427
(lp428
I55
asS'please'
p429
(lp430
I88
asS'fineapple'
p431
(lp432
I63
asS'horrible'
p433
(lp434
I64
asS'reading'
p435
(lp436
I34
asS'never'
p437
(lp438
I25
asS'nature'
p439
(lp440
I17
asS'blaster'
p441
(lp442
I45
asS'honest.'
p443
(lp444
I98
asS'wear'
p445
(lp446
I97
asS'now..'
p447
(lp448
I76
asS'trolling'
p449
(lp450
I69
asS'protect'
p451
(lp452
I93
asS'Glo'
p453
(lp454
I90
asS'@Dbargen:'
p455
(lp456
I52
asS'https://t.co/8aDHials8G'
p457
(lp458
I56
asS'against'
p459
(lp460
I27
asS'tour'
p461
(lp462
I58
asS'whole'
p463
(lp464
I66
asS"can't"
p465
(lp466
I20
aI57
asS'Chie'
p467
(lp468
I22
asS'reasons'
p469
(lp470
I9
asS'dues...but'
p471
(lp472
I64
asS'cs'
p473
(lp474
I87
asS'@SQuirrel147'
p475
(lp476
I22
asS'trust'
p477
(lp478
I28
asS'http://t.co/i3aKRv2rCh'
p479
(lp480
I73
asS'now.'
p481
(lp482
I79
asS'@SkyDX'
p483
(lp484
I10
asS"I've"
p485
(lp486
I11
asS"it's"
p487
(lp488
I20
asS'tristan.'
p489
(lp490
I1
asS'eraser'
p491
(lp492
I49
asS'life'
p493
(lp494
I83
asS'shopping'
p495
(lp496
I46
asS'@tourbusniaIl'
p497
(lp498
I66
asS'personally'
p499
(lp500
I42
asS'\\U0001f62d\\U0001f629\\U0001f602'
p501
(lp502
I90
asS"Can't"
p503
(lp504
I94
asS'myself'
p505
(lp506
I94
asS'smartphones'
p507
(lp508
I93
asS'look'
p509
(lp510
I18
asS'solid'
p511
(lp512
I59
asS'will'
p513
(lp514
I86
asS'near'
p515
(lp516
I80
asS'situation'
p517
(lp518
I65
asS"wouldn't"
p519
(lp520
I60
asS'periods'
p521
(lp522
I12
asS'real'
p523
(lp524
I80
asS'YES,'
p525
(lp526
I44
asS'Oluwababaskepta'
p527
(lp528
I0
asS'is'
p529
(lp530
I15
asS'purse'
p531
(lp532
I14
asS'need'
p533
(lp534
I83
asS'im'
p535
(lp536
I6
asS'pay'
p537
(lp538
I64
asS'http://t.co/cqkiIrotPC'
p539
(lp540
I35
asS'split'
p541
(lp542
I85
asS'@WeddingCatcher:'
p543
(lp544
I57
asS'gets'
p545
(lp546
I61
asS'@TupacShakurTS:'
p547
(lp548
I28
asS'WATCHING'
p549
(lp550
I44
asS'seagulls'
p551
(lp552
I13
asS'fruit'
p553
(lp554
I63
asS'thoughts'
p555
(lp556
I31
asS'butter'
p557
(lp558
I20
asS'off'
p559
(lp560
I6
asS'reflection'
p561
(lp562
I17
asS'@TaylorMarieHill'
p563
(lp564
I30
asS'without'
p565
(lp566
I89
asS'realised'
p567
(lp568
I79
asS'@madiseIena:'
p569
(lp570
I30
asS'taller'
p571
(lp572
I75
asS'hahahha'
p573
(lp574
I10
asS'world'
p575
(lp576
I27
asS'touch'
p577
(lp578
I41
asS'http://t.co/jzspNdZGtJ'
p579
(lp580
I84
asS'yes'
p581
(lp582
I82
asS'praying'
p583
(lp584
I90
asS'Raven'
p585
(lp586
I8
asS'http://t.co/ojX1ED51jq'
p587
(lp588
I80
asS'thinking'
p589
(lp590
I76
asS'@mckryan'
p591
(lp592
I25
asS'throats'
p593
(lp594
I92
asS'\\xa310k'
p595
(lp596
I40
asS'swim'
p597
(lp598
I31
asS'On'
p599
(lp600
I3
asS'game'
p601
(lp602
I81
asS'know'
p603
(lp604
I86
asS'moment,'
p605
(lp606
I42
asS'immediately'
p607
(lp608
I89
asS'towel'
p609
(lp610
I97
asS'admitted'
p611
(lp612
I69
asS'remind'
p613
(lp614
I88
asS'woman"'
p615
(lp616
I5
asS'Finn'
p617
(lp618
I8
asS'portuguese'
p619
(lp620
I74
asS'nigga'
p621
(lp622
I47
asS'parade'
p623
(lp624
I14
asS'http://t.co/MrWWVziKi2'
p625
(lp626
I65
asS'out]'
p627
(lp628
I31
asS'dead'
p629
(lp630
I23
asS'bitch.'
p631
(lp632
I28
asS'table'
p633
(lp634
I6
asS'LOUIS'
p635
(lp636
I40
asS'savage'
p637
(lp638
I15
asS'@CauseWereGuys:'
p639
(lp640
I35
asS'\\U0001f44c\\U0001f4af'
p641
(lp642
I91
asS'^-^'
p643
(lp644
I10
asS'@ADuke_0711:'
p645
(lp646
I51
asS'be'
p647
(lp648
I98
asS'THERE.'
p649
(lp650
I44
asS'http://t.co/ybkNAITeIT'
p651
(lp652
I57
asS'pls'
p653
(lp654
I19
asS'@teenageharryy:'
p655
(lp656
I94
asS'throw'
p657
(lp658
I71
asS'vs.'
p659
(lp660
I99
asS'x31'
p661
(lp662
I74
asS'oh'
p663
(lp664
I39
asS'http://t.co\\u2026'
p665
(lp666
I29
asS'snacks?'
p667
(lp668
I38
asS'wanna'
p669
(lp670
I18
aI45
asS'out.'
p671
(lp672
I14
asS'selfie'
p673
(lp674
I36
asS'within'
p675
(lp676
I59
asS'.'
p677
(lp678
I70
asS'prepare'
p679
(lp680
I68
asS'NO'
p681
(lp682
I54
asS'lol'
p683
(lp684
I16
asS'reason...'
p685
(lp686
I26
asS'way'
p687
(lp688
I75
asS'pitcher'
p689
(lp690
I71
asS'yeah'
p691
(lp692
I86
asS'wireless'
p693
(lp694
I93
asS'FEW'
p695
(lp696
I77
asS'hear'
p697
(lp698
I43
asS'tho'
p699
(lp700
I25
asS'NEED'
p701
(lp702
I32
asS'with'
p703
(lp704
I30
asS"I'll"
p705
(lp706
I39
asS"they're"
p707
(lp708
I82
asS'type'
p709
(lp710
I95
asS'signed'
p711
(lp712
I9
asS'this.'
p713
(lp714
I34
asS'http://t.co/rm2mNFy6oe'
p715
(lp716
I7
asS'classes.'
p717
(lp718
I27
asS'\\U0001f601'
p719
(lp720
I84
asS'af'
p721
(lp722
I84
asS'knees'
p723
(lp724
I92
asS'stuffs'
p725
(lp726
I29
asS'whatsoever.'
p727
(lp728
I88
asS'at'
p729
(lp730
I56
asS'NOT"'
p731
(lp732
I2
asS'fans?'
p733
(lp734
I74
asS'moves'
p735
(lp736
I93
asS'dealer'
p737
(lp738
I67
asS'shit'
p739
(lp740
I68
asS'dying'
p741
(lp742
I21
asS'tits'
p743
(lp744
I92
asS'http://t.co/PulTUU7F6L'
p745
(lp746
I80
asS'stay'
p747
(lp748
I41
asS"let's"
p749
(lp750
I87
asS'friends'
p751
(lp752
I98
asS'longer'
p753
(lp754
I23
asS'At'
p755
(lp756
I69
asS'having'
p757
(lp758
I79
as.