(dp0
I0
(dp1
S'keywords'
p2
(lp3
S'brother'
p4
aS'Skepta'
p5
aS'Oluwababaskepta'
p6
aS'Do'
p7
asS'text'
p8
S'RT @JmeBBK: I call him Oluwababaskepta RT @Iborinho: @JmeBBK Do you call your brother by his name or do you call him Skepta'
p9
sS'cluster'
p10
I0
ssI1
(dp11
g2
(lp12
S'what'
p13
aS'tristan.'
p14
aS'thinking.'
p15
aS'max'
p16
asg8
S'@BI_Sports if anyone on the cavs deserves a max besides bron its tristan. No idea what everyone else is thinking.'
p17
sg10
I0
ssI2
(dp18
g2
(lp19
S'http://t.c\\u2026'
p20
aS'WHAT'
p21
aS'VERY'
p22
aS'NOT"'
p23
asg8
S'RT @flauntingniall: HE GOES "YOU KNOW HES GUNNA BE A DAD" AND VERY FAINTLY YOU HEAR "NO IM NOT" THIS IS APPARENTLY WHAT HAPPENED http://t.c\\u2026'
p24
sg10
I0
ssI3
(dp25
g2
(lp26
S'http://t.co/TNstJqyZv2'
p27
aS'Wings'
p28
aS'Teaser:'
p29
aS'On'
p30
asg8
S'RT @abscbndotcom: On The Wings Of Love August 11, 2015 Teaser: http://t.co/TNstJqyZv2 via @YouTube'
p31
sg10
I0
ssI4
(dp32
g2
(lp33
S'kebabs'
p34
aS'abs'
p35
aS'why'
p36
aS'can'
p37
asg8
S'why have abs when u can have kebabs'
p38
sg10
I0
ssI5
(dp39
g2
(lp40
S"wouldn\\'t"
p41
aS"wouldn\\'t"
p42
aS'women'
p43
aS'woman"'
p44
asg8
S'RT @CurtisBebro: "i wouldn\\\'t date a trans woman" boy these women wouldn\\\'t date you in your dreams http://t.co/PrGZhu2ZDc'
p45
sg10
I0
ssI6
(dp46
g2
(lp47
S'table'
p48
aS'outtie'
p49
aS'off'
p50
aS'im'
p51
asg8
S'A bottle fell off my bedside table and I go "OH FUCK YOU, YOU STUPID FUCKING CUNT!" like im so angry bc im tired gn bye outtie'
p52
sg10
I0
ssI7
(dp53
g2
(lp54
S'working'
p55
aS'thing'
p56
aS'http://t.co/rm2mNFy6oe'
p57
aS'ht\\u2026'
p58
asg8
S"RT @necrosoftgames: Hi friends! We're working on a new thing with @jnkboy @d92008 and einsbern. RT if you like :3 http://t.co/rm2mNFy6oe ht\\u2026"
p59
sg10
I0
ssI8
(dp60
g2
(lp61
S'https://t.co/eLz9QPzWwh'
p62
aS'conversation'
p63
aS'Raven'
p64
aS'Finn'
p65
asg8
S'RT @100_vines: probably a conversation Raven &amp; Clarke had about Finn https://t.co/eLz9QPzWwh'
p66
sg10
I0
ssI9
(dp67
g2
(lp68
S'woman'
p69
aS'signed'
p70
aS'reasons'
p71
aS'fuck..."'
p72
asg8
S'"It\\\'s like you lost your woman to Martin-Luther-Jesus-Ghandi." "He just signed a new contract. He got 87.6 reasons to not give a fuck..."'
p73
sg10
I0
ssI10
(dp74
g2
(lp75
S'thats'
p76
aS'hahahha'
p77
aS'^-^'
p78
aS'@SkyDX'
p79
asg8
S'@SkyDX hahahha thats okay ^-^ i read it just now :3'
p80
sg10
I0
ssI11
(dp81
g2
(lp82
S'find'
p83
aS'out'
p84
aS'talk'
p85
aS"I've"
p86
asg8
S"I've really come to find out I have no one to talk to \\U0001f602"
p87
sg10
I0
ssI12
(dp88
g2
(lp89
S'suck.'
p90
aS'saying'
p91
aS'pregnant'
p92
aS'periods'
p93
asg8
S"periods suck. if we could just get a call once a month saying we're not pregnant you know that would be gr8"
p94
sg10
I0
ssI13
(dp95
g2
(lp96
S'seagulls'
p97
aS'seagull'
p98
aS'saw'
p99
aS'mean'
p100
asg8
S"RT @etnaD_olegnaD: Just saw a gang fight. When I mean gang fight, I mean these seagulls we're fucking up one seagull over food hahaha"
p101
sg10
I0
ssI14
(dp102
g2
(lp103
S'young'
p104
aS'purse'
p105
aS'parade'
p106
aS'out.'
p107
asg8
S'it for the young females, aye, their coming out.  Ladies on parade for those with a purse full of coins. ( @TheLadyViola ) &gt;'
p108
sg10
I0
ssI15
(dp109
g2
(lp110
S'savage'
p111
aS'@tymregnier'
p112
aS'@Tommy_Delicious:'
p113
aS'is'
p114
asg8
S'RT @Tommy_Delicious: @tymregnier is a savage'
p115
sg10
I0
ssI16
(dp116
g2
(lp117
S'fat'
p118
aS"i'm"
p119
aS'lol'
p120
asg8
S"i'm fat lol"
p121
sg10
I0
ssI17
(dp122
g2
(lp123
S'that.'
p124
aS'right,'
p125
aS'reflection'
p126
aS'nature'
p127
asg8
S"@JoshhCOD Inevitably you're probably right, but that's a reflection on the nature of the game atm. Be the change you want to see &amp; all that."
p128
sg10
I0
ssI18
(dp129
g2
(lp130
S'ya'
p131
aS'look'
p132
aS'good'
p133
aS'wanna'
p134
asg8
S'I just wanna look good for ya'
p135
sg10
I0
ssI19
(dp136
g2
(lp137
S'x103'
p138
aS'pls'
p139
aS'\\U0001f49c'
p140
aS'@camerondallas'
p141
asg8
S'@camerondallas I really really really love you, pls follow me \\U0001f60d #VoteForCameron #Camwebstarandviner \\U0001f49c x103'
p142
sg10
I0
ssI20
(dp143
g2
(lp144
S'butter'
p145
aS'believe'
p146
aS"can't"
p147
aS"it's"
p148
asg8
S"I can't believe it's not butter"
p149
sg10
I0
ssI21
(dp150
g2
(lp151
S'https://t.co/mEoOWgdGPH'
p152
aS'dying'
p153
aS'@WeLoveRobDyrdek:'
p154
aS'\\U0001f602'
p155
asg8
S"RT @WeLoveRobDyrdek: I'm dying \\U0001f602 https://t.co/mEoOWgdGPH"
p156
sg10
I0
ssI22
(dp157
g2
(lp158
S'player.'
p159
aS'better'
p160
aS'Chie'
p161
aS'@SQuirrel147'
p162
asg8
S'@SQuirrel147 I told you it would make you a better Chie player.'
p163
sg10
I0
ssI23
(dp164
g2
(lp165
S'something,'
p166
aS'longer'
p167
aS'ever'
p168
aS'dead'
p169
asg8
S"Let me tell you something, you're going to be dead a lot longer than you were ever alive."
p170
sg10
I0
ssI24
(dp171
g2
(lp172
S'will/+'
p173
aS'http://t.co/wM3\\u2026'
p174
aS'http://t.co/tnFUoi4Fro'
p175
aS'REAL'
p176
asg8
S'RT @NotableFollow: I will/+ Give you 2000+ REAL Twitter Followers Permanent for $5 http://t.co/tnFUoi4Fro via @MyCheapJobss http://t.co/wM3\\u2026'
p177
sg10
I0
ssI25
(dp178
g2
(lp179
S'haha'
p180
aS'@mckryan'
p181
aS'tho'
p182
aS'never'
p183
asg8
S'@mckryan never seen that haha I feel like I should have tho lol'
p184
sg10
I0
ssI26
(dp185
g2
(lp186
S'reason...'
p187
aS'missed'
p188
aS'Because'
p189
aS'out'
p190
asg8
S'I asked you out for a reason... Because I missed us'
p191
sg10
I0
ssI27
(dp192
g2
(lp193
S'masses'
p194
aS'classes.'
p195
aS'against'
p196
aS'world'
p197
asg8
S'All the world over I will back the masses against the classes.'
p198
sg10
I0
ssI28
(dp199
g2
(lp200
S'trust'
p201
aS'bitch.'
p202
aS'@TupacShakurTS:'
p203
aS"Don't"
p204
asg8
S"RT @TupacShakurTS: Don't trust a bitch."
p205
sg10
I0
ssI29
(dp206
g2
(lp207
S'stuffs'
p208
aS'kids"'
p209
aS'http://t.co\\u2026'
p210
aS'him"'
p211
asg8
S'RT @1DsUniverse: "Louis made a lot of kids happy"\n"Liam was there with him"\n"Harry and Niall donated their stuffs to help kids" http://t.co\\u2026'
p212
sg10
I0
ssI30
(dp213
g2
(lp214
S'@madiseIena:'
p215
aS'@TaylorMarieHill'
p216
aS'love'
p217
aS'with'
p218
asg8
S"RT @madiseIena: @TaylorMarieHill I'm in love with you"
p219
sg10
I0
ssI31
(dp220
g2
(lp221
S'thoughts'
p222
aS'swim'
p223
aS'started'
p224
aS'out]'
p225
asg8
S'@MindRecker69 \nin his own thoughts as he started to back out]\n"I\\\'m.. gonna.. swim for a bit..\\\'\\\''
p226
sg10
I0
ssI32
(dp227
g2
(lp228
S'http://t.co/HY4F2HVELR'
p229
aS'STOPPED'
p230
aS'@egyptizayn:'
p231
aS'NEED'
p232
asg8
S'RT @egyptizayn: I NEED TO BE STOPPED http://t.co/HY4F2HVELR'
p233
sg10
I0
ssI33
(dp234
g2
(lp235
S'http://t.co/aqDjPccq3s'
p236
aS'birthday'
p237
aS'@devynwillows\\U0001f389\\u2764\\ufe0f'
p238
aS'hope'
p239
asg8
S'Happy birthday @devynwillows\\U0001f389\\u2764\\ufe0f hope you have a great day! http://t.co/aqDjPccq3s'
p240
sg10
I0
ssI34
(dp241
g2
(lp242
S'this.'
p243
aS'reading'
p244
aS'more'
p245
aS'http://t.co/tquVA7Nbcr'
p246
asg8
S"RT @DataPepple: I've always liked Emma Watson. I just liked her a little bit more after reading this. http://t.co/tquVA7Nbcr"
p247
sg10
I0
ssI35
(dp248
g2
(lp249
S'http://t.co/cqkiIrotPC'
p250
aS'@CauseWereGuys:'
p251
aS"haven't"
p252
aS'close'
p253
asg8
S"RT @CauseWereGuys: When you haven't seen your best friend in close to a year http://t.co/cqkiIrotPC"
p254
sg10
I0
ssI36
(dp255
g2
(lp256
S'stick'
p257
aS'selfie'
p258
aS'only'
p259
aS'http://t.co/oVVNIKo6PL'
p260
asg8
S'RT @MilitaryTweet: The only time a selfie stick is cool \\u2708\\ufe0f\\U0001f1fa\\U0001f1f8 http://t.co/oVVNIKo6PL'
p261
sg10
I0
ssI37
(dp262
g2
(lp263
S'ONLY'
p264
aS'OMG'
p265
aS'NOW'
p266
aS'MYSELF'
p267
asg8
S'@baemorley @aestheticblake OMG I LITERALLY ONLY GOT IT NOW IM SO FREAKING STUPID I HATE MYSELF'
p268
sg10
I0
ssI38
(dp269
g2
(lp270
S'snacks?'
p271
aS'let'
p272
aS'know"'
p273
aS'http://t.co/MURaQSSWvq'
p274
asg8
S'RT @WORIDSTARHIPH0P: Kris: "do you guys need anything? some snacks? a condom? let me know" http://t.co/MURaQSSWvq'
p275
sg10
I0
ssI39
(dp276
g2
(lp277
S'you...NOT!'
p278
aS'Monday,'
p279
aS'oh'
p280
aS"I'll"
p281
asg8
S"oh Monday, I'll miss you...NOT!"
p282
sg10
I0
ssI40
(dp283
g2
(lp284
S'http://t.co/dI9tMCYw0n'
p285
aS'\\xa310k'
p286
aS'PAINTED'
p287
aS'LOUIS'
p288
asg8
S'RT @fourarrowsniall: LOUIS DONATED \\xa310k FOR LIAM TO HAVE HIS FACE PAINTED AND LEAVE THE BALL LIKE THAT I GTG http://t.co/dI9tMCYw0n'
p289
sg10
I0
ssI41
(dp290
g2
(lp291
S'touch'
p292
aS'though'
p293
aS'talked'
p294
aS'stay'
p295
asg8
S'RT @girlposts: it\\u2019s hard to stay in touch with internet friends I just want u to know that even though we havent talked in a long time I st\\u2026'
p296
sg10
I0
ssI42
(dp297
g2
(lp298
S'personally'
p299
aS'moment,'
p300
aS'depths'
p301
aS'deepest'
p302
asg8
S"RT @adidasliIo: if you're curious as to how lilo girls are doing at the moment, i can tell you that i personally am in the deepest depths o\\u2026"
p303
sg10
I0
ssI43
(dp304
g2
(lp305
S'regret'
p306
aS'hear'
p307
aS'end'
p308
aS"doesn't"
p309
asg8
S"Basically the end game here is I told her to #BuyDragMeDownOniTunes. But I regret it bc she doesn't deserve to hear that art."
p310
sg10
I0
ssI44
(dp311
g2
(lp312
S'YOU.'
p313
aS'YES,'
p314
aS'WATCHING'
p315
aS'THERE.'
p316
asg8
S"RT @technickl: AND YES, I'M SHOUTING. BECAUSE YOU BETTER BE THERE.\n\nI MEAN IT.\n\nI'M WATCHING YOU."
p317
sg10
I0
ssI45
(dp318
g2
(lp319
S'try'
p320
aS'tbh'
p321
aS'blaster'
p322
aS'wanna'
p323
asg8
S'i wanna try a blaster tbh'
p324
sg10
I0
ssI46
(dp325
g2
(lp326
S'yo'
p327
aS'shopping'
p328
aS'http://t.co/qimxKkSL1V'
p329
aS'grocery'
p330
asg8
S"RT @Dvpexx_: \\U0001f480 when yo mom ain't go grocery shopping in a month http://t.co/qimxKkSL1V"
p331
sg10
I0
ssI47
(dp332
g2
(lp333
S'vengeance'
p334
aS'http://t.co/iK8z4s2YAj'
p335
aS'@NiggaNarration:'
p336
aS'nigga'
p337
asg8
S'RT @NiggaNarration: Back with a vengeance nigga http://t.co/iK8z4s2YAj'
p338
sg10
I0
ssI48
(dp339
g2
(lp340
S'xception'
p341
asg8
g341
sg10
I0
ssI49
(dp342
g2
(lp343
S'win'
p344
aS'makeup'
p345
aS'eraser'
p346
aS'Follow'
p347
asg8
S'@jazmineheredia_ Happy day! Follow us and you could win a makeup eraser :)'
p348
sg10
I0
ssI50
(dp349
g2
(lp350
S'xception'
p351
asg8
g351
sg10
I0
ssI51
(dp352
g2
(lp353
S'yall!'
p354
aS'@s_fowler16'
p355
aS'@ClaudiaVincen10'
p356
aS'@ADuke_0711:'
p357
asg8
S'RT @ADuke_0711: @ClaudiaVincen10 @s_fowler16 I miss yall!'
p358
sg10
I0
ssI52
(dp359
g2
(lp360
S'http://t.co/UQEB7vFbIM'
p361
aS'cannot.'
p362
aS'Mcc'
p363
aS'@Dbargen:'
p364
asg8
S'RT @Dbargen: I cannot. Mcc http://t.co/UQEB7vFbIM'
p365
sg10
I0
ssI53
(dp366
g2
(lp367
S'xception'
p368
asg8
g368
sg10
I0
ssI54
(dp369
g2
(lp370
S'http://t.co/rQjLtHSfYL'
p371
aS'SEE'
p372
aS'NO'
p373
aS'DIFFERENCE'
p374
asg8
S'RT @alllthelovex: I SEE NO DIFFERENCE http://t.co/rQjLtHSfYL'
p375
sg10
I0
ssI55
(dp376
g2
(lp377
S'says'
p378
aS'said'
p379
aS'not"'
p380
aS'kn\\u2026'
p381
asg8
S'RT @LarryUpdatesAcc: "@tmhcurlshire:"no i\\\'m not" louis says right after the man said he\\\'s going to be a dad http://t.co/Er4Xthfe5d" "you kn\\u2026'
p382
sg10
I0
ssI56
(dp383
g2
(lp384
S'https://t.co/8aDHials8G'
p385
aS'Unip'
p386
aS'at'
p387
aS"I'm"
p388
asg8
S"I'm at Unip https://t.co/8aDHials8G"
p389
sg10
I0
ssI57
(dp390
g2
(lp391
S'wait'
p392
aS'http://t.co/ybkNAITeIT'
p393
aS'@WeddingCatcher:'
p394
aS"can't"
p395
asg8
S"RT @WeddingCatcher: I can't wait for this \\U0001f60d http://t.co/ybkNAITeIT"
p396
sg10
I0
ssI58
(dp397
g2
(lp398
S'tour"'
p399
aS'tour'
p400
aS'"Is'
p401
aS'girls'
p402
asg8
S'"Is that a world tour or your girls tour"'
p403
sg10
I0
ssI59
(dp404
g2
(lp405
S'within'
p406
aS'viewers'
p407
aS'solid'
p408
aS'past'
p409
asg8
S"@MissAntoinette_ I've never even gotten a solid 10 human viewers in a channel at once within the past year I've been doing this"
p410
sg10
I0
ssI60
(dp411
g2
(lp412
S"wouldn't"
p413
aS'list.'
p414
aS'Jackson'
p415
aS'Fred'
p416
asg8
S"I wouldn't have thought I'd see Fred Jackson that high on this list."
p417
sg10
I0
ssI61
(dp418
g2
(lp419
S'gets'
p420
aS'@Chief_Keesh:'
p421
aS'from'
p422
aS'All'
p423
asg8
S'RT @Chief_Keesh: All she gets from me is a hard time'
p424
sg10
I0
ssI62
(dp425
g2
(lp426
S'xception'
p427
asg8
g427
sg10
I0
ssI63
(dp428
g2
(lp429
S"you'd"
p430
aS'fruit'
p431
aS'fineapple'
p432
aS'@pickupIines:'
p433
asg8
S"RT @pickupIines: if you were a fruit you'd be a fineapple"
p434
sg10
I0
ssI64
(dp435
g2
(lp436
S'pay'
p437
aS'horrible'
p438
aS'dues...but'
p439
aS'bent'
p440
asg8
S"Dude, Karma, I get it, I'm a horrible human being and you are hell bent on making me pay my dues...but I think we're good now #karma #fml"
p441
sg10
I0
ssI65
(dp442
g2
(lp443
S'turn'
p444
aS'situation'
p445
aS'http://t.co/MrWWVziKi2'
p446
aS'bad'
p447
asg8
S'RT @ACommonFemaIe: How to turn a bad situation into a good one http://t.co/MrWWVziKi2'
p448
sg10
I0
ssI66
(dp449
g2
(lp450
S'sweetest'
p451
aS'entire'
p452
aS'@tourbusniaIl'
p453
aS'whole'
p454
asg8
S'@tourbusniaIl I do he is the sweetest person in the whole entire world'
p455
sg10
I0
ssI67
(dp456
g2
(lp457
S'local'
p458
aS'dealer'
p459
aS'checked'
p460
aS'@Ford'
p461
asg8
S'I just checked into my local @Ford dealer with #mPLACES'
p462
sg10
I0
ssI68
(dp463
g2
(lp464
S'tweet'
p465
aS'shit'
p466
aS'prepare'
p467
aS'night...'
p468
asg8
S"I feel like I should prepare my baby's @twitter TL for the shit she may tweet after Saturday night...\n\n... Cause bruh."
p469
sg10
I0
ssI69
(dp470
g2
(lp471
S'trolling'
p472
aS'least'
p473
aS'admitted'
p474
aS'At'
p475
asg8
S'@PSUBoomboxGuy At least you admitted to trolling not a lot of people like you.'
p476
sg10
I0
ssI70
(dp477
g2
(lp478
S'toooooo'
p479
aS'hold'
p480
aS'anger'
p481
aS'.'
p482
asg8
S'I hold in toooooo much fucking anger .'
p483
sg10
I0
ssI71
(dp484
g2
(lp485
S'throw'
p486
aS'pitcher'
p487
aS'passed'
p488
aS'leukemia.'
p489
asg8
S"RT @ReaIKentMurphy: Ohio State's pitcher Zach Farmer passed away after a battle with leukemia. RIP Zach, throw some heat in heaven \\u26be\\ufe0f http:\\u2026"
p490
sg10
I0
ssI72
(dp491
g2
(lp492
S'sign'
p493
aS'retweet'
p494
aS'fan'
p495
aS'Favourite'
p496
asg8
S"Favourite this or retweet it and I'll do u a fan sign"
p497
sg10
I0
ssI73
(dp498
g2
(lp499
S'http://t.co/i3aKRv2rCh'
p500
aS'MY'
p501
aS'MUCH'
p502
aS'MOTHER'
p503
asg8
S'RT @avonsbelIissima: I LOVE MY MOTHER SO MUCH http://t.co/i3aKRv2rCh'
p504
sg10
I0
ssI74
(dp505
g2
(lp506
S'x31'
p507
aS'portuguese'
p508
aS'loves'
p509
aS'fans?'
p510
asg8
S'#AaronCarpenter do you love your portuguese fans? When do you come to Portugal? Portugal loves you. Love u @AaronCarpenter x31'
p511
sg10
I0
ssI75
(dp512
g2
(lp513
S'way'
p514
aS'true!'
p515
aS'taller'
p516
aS'short'
p517
asg8
S"@tayisaaa yeah true! For me that's short because I'm way taller bit for some that's average \\U0001f602"
p518
sg10
I0
ssI76
(dp519
g2
(lp520
S'thinking'
p521
aS'sounds'
p522
aS'right\\u2764'
p523
aS'now..'
p524
asg8
S"I guess I gotta make it up to him now.. LOL.. hmm.. I'm thinking home made dinner and a movie.. Yea that sounds about right\\u2764"
p525
sg10
I0
ssI77
(dp526
g2
(lp527
S'FEW'
p528
aS'BUMPS?!?'
p529
aS'@velopaso'
p530
aS'@Flusche'
p531
asg8
S'A FEW BUMPS?!?\n#UnderstatementOfTheDay\n@Flusche @velopaso'
p532
sg10
I0
ssI78
(dp533
g2
(lp534
S'winner.'
p535
aS'giveaway.'
p536
aS'did.'
p537
aS'came'
p538
asg8
S'@maxt1234567 SERIOUSLY? Bruh. We came here for a simple giveaway. You asked us to follow so we did. Now we await a winner.'
p539
sg10
I0
ssI79
(dp540
g2
(lp541
S'timeline!'
p542
aS'realised'
p543
aS'now.'
p544
aS'having'
p545
asg8
S'@PretendRedhead I realised that just now. I blame being tired and having seen it come up in my timeline!'
p546
sg10
I0
ssI80
(dp547
g2
(lp548
S'real'
p549
aS'near'
p550
aS'http://t.co/ojX1ED51jq'
p551
aS'http://t.co/PulTUU7F6L'
p552
asg8
S'#freeoralsex #hotgirls #sexchat #blowjobs #cumshots #exgfs - get a real girl near you &gt;&gt; http://t.co/PulTUU7F6L http://t.co/ojX1ED51jq'
p553
sg10
I0
ssI81
(dp554
g2
(lp555
S'Vita'
p556
aS'PS'
p557
aS'@kawaiigaythug'
p558
aS'game'
p559
asg8
S'@kawaiigaythug A PS Vita game'
p560
sg10
I0
ssI82
(dp561
g2
(lp562
S'yes'
p563
aS'us,'
p564
aS"they're"
p565
aS'talent'
p566
asg8
S"RT @futsurehearts: i wish 5sos stans would respect 5sos as much as 5sos respect us, yes they're pretty boys but they have raw talent that o\\u2026"
p567
sg10
I0
ssI83
(dp568
g2
(lp569
S'life'
p570
aS'https://t.co/QOgiI5cmAE'
p571
aS'@WORIDSTARHIPH0P:'
p572
aS'need'
p573
asg8
S'RT @WORIDSTARHIPH0P: All I need in life \\U0001f60d https://t.co/QOgiI5cmAE'
p574
sg10
I0
ssI84
(dp575
g2
(lp576
S'http://t.co/jzspNdZGtJ'
p577
aS'af'
p578
aS'\\U0001f601'
p579
aS'Me'
p580
asg8
S'RT @TheFunnyVine: Me af when I have kids \\U0001f601 http://t.co/jzspNdZGtJ'
p581
sg10
I0
ssI85
(dp582
g2
(lp583
S'world.'
p584
aS'vision.'
p585
aS'split'
p586
aS'reborn.'
p587
asg8
S'RT @93slaurent: I have been reborn. I have 20/20 vision. My acne is gone. My split ends are gone. There is peace in the world. http://t.co/\\u2026'
p588
sg10
I0
ssI86
(dp589
g2
(lp590
S'@letus_dance'
p591
aS'yeah'
p592
aS'will'
p593
aS'know'
p594
asg8
S'@letus_dance yeah I know you will'
p595
sg10
I0
ssI87
(dp596
g2
(lp597
S'take'
p598
aS"let's"
p599
aS'dam'
p600
aS'cs'
p601
asg8
S"@AdaptsTheGod dam after I guess let's take over cs go"
p602
sg10
I0
ssI88
(dp603
g2
(lp604
S'whatsoever.'
p605
aS'w/'
p606
aS'remind'
p607
aS'please'
p608
asg8
S"RT @Steele_Stewart: Can someone please remind Tristan Thompson that he's a backup PF w/ no offensive game whatsoever. Role players dont get\\u2026"
p609
sg10
I0
ssI89
(dp610
g2
(lp611
S'without'
p612
aS'released'
p613
aS'immediately'
p614
aS'https://t\\u2026'
p615
asg8
S'RT @brownblaze: FREE THE SQUAD. \n\nCall STL U.S. Attorney &amp; demand activists be released immediately without charge. 314-539-2200  https://t\\u2026'
p616
sg10
I0
ssI90
(dp617
g2
(lp618
S'praying'
p619
aS'http://t.co/E4wz9XGPJ9'
p620
aS'\\U0001f62d\\U0001f629\\U0001f602'
p621
aS'Glo'
p622
asg8
S"RT @queenchinaa19: I'm praying my Glo is like this #DK4L \\U0001f62d\\U0001f629\\U0001f602 http://t.co/E4wz9XGPJ9"
p623
sg10
I0
ssI91
(dp624
g2
(lp625
S'needed'
p626
aS'cosign'
p627
aS'\\U0001f463,'
p628
aS'\\U0001f44c\\U0001f4af'
p629
asg8
S"RT @JoeBlak51: I'm the man on my own two \\U0001f463, no cosign needed \\U0001f44c\\U0001f4af"
p630
sg10
I0
ssI92
(dp631
g2
(lp632
S'toy'
p633
aS'tits'
p634
aS'throats'
p635
aS'knees'
p636
asg8
S'RT @JDadolescente: Babe with big tits on her knees deep throats a toy http://t.co/RUBupdimUO'
p637
sg10
I0
ssI93
(dp638
g2
(lp639
S'wireless'
p640
aS'smartphones'
p641
aS'protect'
p642
aS'moves'
p643
asg8
S'A nasty Android exploit has wireless carriers making bold moves to protect smartphones http://t.co/Ovhu0KdMrK  #trending'
p644
sg10
I0
ssI94
(dp645
g2
(lp646
S'myself'
p647
aS"Can't"
p648
aS'@teenageharryy:'
p649
aS'bring'
p650
asg8
S"RT @teenageharryy: Can't bring myself to give up on anyone even if I really should"
p651
sg10
I0
ssI95
(dp652
g2
(lp653
S'type'
p654
aS'pick'
p655
aS'@probablylame:'
p656
aS'talk'
p657
asg8
S"RT @probablylame: i'm the type of friend who will come pick you up at 3 am and talk about everything"
p658
sg10
I0
ssI96
(dp659
g2
(lp660
S'shit\\u270c\\U0001f3fc\\ufe0f\\u270c\\U0001f3fc\\u270c\\U0001f3fc\\u270c\\U0001f3fc\\u270c\\U0001f3fc'
p661
aS"haters,I'm"
p662
aS'Fuck'
p663
aS'too'
p664
asg8
S"Fuck the haters,I'm too hard for this shit\\u270c\\U0001f3fc\\ufe0f\\u270c\\U0001f3fc\\u270c\\U0001f3fc\\u270c\\U0001f3fc\\u270c\\U0001f3fc"
p665
sg10
I0
ssI97
(dp666
g2
(lp667
S'wear'
p668
aS'water'
p669
aS'towel'
p670
aS'sycamore'
p671
asg8
S"Extreme nights day 2 tonight at sycamore creek church 8:30-10:30 wear dark clothes and bring a towel it's water night\\U0001f4a6\\U0001f30a"
p672
sg10
I0
ssI98
(dp673
g2
(lp674
S'honest.'
p675
aS'new'
p676
aS'friends'
p677
aS'be'
p678
asg8
S'I want new friends to be honest.'
p679
sg10
I0
ssI99
(dp680
g2
(lp681
S'vs.'
p682
aS'leaving'
p683
aS'http://t.co/BKNuwZ26Ne'
p684
aS'Louis\\U0001f602'
p685
asg8
S'RT @okayxnarry: Going somewhere with Louis vs. leaving somewhere with Louis\\U0001f602 i love lilo \n#BelieveInMagicBall http://t.co/BKNuwZ26Ne'
p686
sg10
I0
ss.