(dp0
Vedc
p1
I1
sVall
p2
I1
sVhelp
p3
I1
sVjust
p4
I2
sVseeing
p5
I1
sVj5_missathletic
p6
I1
sVgo
p7
I1
sVfollow
p8
I1
sVsurrender\u2026
p9
I1
sVamanddduh
p10
I1
sVhad
p11
I1
sV,
p12
I2
sVto
p13
I1
sVtweets
p14
I1
sVdonfreshi
p15
I1
sV@
p16
I12
sVthem
p17
I1
sVget
p18
I1
sVevery
p19
I1
sVbit
p20
I1
sVnow
p21
I1
sVday
p22
I1
sVbunkersparadise
p23
I1
sVmindful_muslim
p24
I1
sVbutton
p25
I1
sVpopular
p26
I1
sVeveryone
p27
I1
sVpeople
p28
I1
sVsome
p29
I1
sVyeah
p30
I1
sVsee
p31
I1
sV's
p32
I1
sVdillonfrancis
p33
I1
sVrt
p34
I6
sVwhat
p35
I1
sVgon
p36
I1
sVfor
p37
I1
sVlots
p38
I1
sVliterally
p39
I1
sVits
p40
I1
sVeverything
p41
I1
sVyahya
p42
I1
sVsurprise
p43
I1
sVcause
p44
I1
sV?
p45
I1
sVbe
p46
I2
sVwe
p47
I1
sVcantwaittowatchthehackfest
p48
I1
sVconfused
p49
I1
sVby
p50
I1
sVoloksy
p51
I1
sVof
p52
I3
sVdelete
p53
I1
sV3putts
p54
I1
sVamong
p55
I1
sVdont
p56
I2
sV.
p57
I4
sVyour
p58
I1
sVlittle
p59
I1
sVguest
p60
I1
sVfriends
p61
I1
sV//t.co/5bxmlw4joj
p62
I1
sVgirls
p63
I1
sVleast
p64
I1
sVzedd
p65
I1
sVtoo
p66
I1
sVhttps
p67
I1
sV:
p68
I10
sV//t.co/vfnmkpfyik
p69
I1
sVdon\u2019t
p70
I1
sV``
p71
I1
sVthat
p72
I1
sVrepentance
p73
I1
sVbut
p74
I1
sV\U0001f602\U0001f602\U0001f602
p75
I1
sVlink
p76
I2
sVmust
p77
I1
sVthru
p78
I1
sV\u2014abdulbary
p79
I1
sVwish
p80
I1
sVsupposed
p81
I1
sV__xloveliyah
p82
I1
sVpgatour
p83
I1
sVand
p84
I3
sV\U0001f605
p85
I1
sVwell
p86
I1
sVis
p87
I1
sVam
p88
I3
sVit
p89
I1
sV''
p90
I1
sVshame
p91
I2
sVat
p92
I3
sVhave
p93
I3
sVany
p94
I1
sV!
p95
I1
sVno
p96
I1
sV\U0001f629
p97
I1
sVna
p98
I1
sVyou
p99
I2
sVhttp
p100
I2
sVcoastie_alexx
p101
I1
sV#
p102
I3
sVmost
p103
I1
sV'm
p104
I2
sVweekend
p105
I1
sVa
p106
I4
sV//t.co/n1z7xouar8
p107
I1
sVi
p108
I9
sVlife
p109
I1
sVu
p110
I1
sVthe
p111
I2
sVplaying
p112
I1
s.